(lp1
(dp2
S'annotations'
p3
(lp4
(dp5
S'height'
p6
F126
sS'width'
p7
F222
sS'y'
F239
sS'x'
F354
sS'class'
p8
S'ALB'
p9
sasg8
S'image'
p10
sS'filename'
p11
S'img_07914.jpg'
p12
sa(dp13
g3
(lp14
(dp15
g6
F207
sg7
F98
sS'y'
F420
sS'x'
F645
sg8
g9
sa(dp16
g6
F122
sg7
F105
sS'y'
F293
sS'x'
F832
sg8
g9
sasg8
g10
sg11
S'img_07890.jpg'
p17
sa(dp18
g3
(lp19
sg8
g10
sg11
S'img_07878.jpg'
p20
sa(dp21
g3
(lp22
sg8
g10
sg11
S'img_07876.jpg'
p23
sa(dp24
g3
(lp25
(dp26
g6
F100
sg7
F110
sS'y'
F291
sS'x'
F484
sg8
g9
sasg8
g10
sg11
S'img_07869.jpg'
p27
sa(dp28
g3
(lp29
(dp30
g6
F130
sg7
F273
sS'y'
F60
sS'x'
F385
sg8
g9
sasg8
g10
sg11
S'img_07863.jpg'
p31
sa(dp32
g3
(lp33
sg8
g10
sg11
S'img_07862.jpg'
p34
sa(dp35
g3
(lp36
(dp37
g6
F201
sg7
F364
sS'y'
F169
sS'x'
F638
sg8
g9
sasg8
g10
sg11
S'img_07810.jpg'
p38
sa(dp39
g3
(lp40
(dp41
g6
F132
sg7
F166
sS'y'
F23
sS'x'
F764
sg8
g9
sasg8
g10
sg11
S'img_07785.jpg'
p42
sa(dp43
g3
(lp44
(dp45
g6
F89
sg7
F195
sS'y'
F369
sS'x'
F163
sg8
g9
sasg8
g10
sg11
S'img_07773.jpg'
p46
sa(dp47
g3
(lp48
(dp49
g6
F181
sg7
F83
sS'y'
F241
sS'x'
F581
sg8
g9
sasg8
g10
sg11
S'img_07768.jpg'
p50
sa(dp51
g3
(lp52
sg8
g10
sg11
S'img_07766.jpg'
p53
sa(dp54
g3
(lp55
sg8
g10
sg11
S'img_07763.jpg'
p56
sa(dp57
g3
(lp58
sg8
g10
sg11
S'img_07749.jpg'
p59
sa(dp60
g3
(lp61
(dp62
g6
F105
sg7
F105
sS'y'
F304
sS'x'
F833
sg8
g9
sa(dp63
g6
F193
sg7
F105
sS'y'
F423
sS'x'
F641
sg8
g9
sasg8
g10
sg11
S'img_07739.jpg'
p64
sa(dp65
g3
(lp66
(dp67
g6
F244
sg7
F170
sS'y'
F337
sS'x'
F305
sg8
g9
sasg8
g10
sg11
S'img_07735.jpg'
p68
sa(dp69
g3
(lp70
(dp71
g6
F181
sg7
F371
sS'y'
F347
sS'x'
F654
sg8
g9
sasg8
g10
sg11
S'img_07726.jpg'
p72
sa(dp73
g3
(lp74
(dp75
g6
F198
sg7
F313
sS'y'
F184
sS'x'
F609
sg8
g9
sa(dp76
g6
F148
sg7
F388
sS'y'
F66
sS'x'
F623
sg8
g9
sa(dp77
g6
F101
sg7
F305
sS'y'
F59
sS'x'
F287
sg8
g9
sasg8
g10
sg11
S'img_07720.jpg'
p78
sa(dp79
g3
(lp80
sg8
g10
sg11
S'img_07704.jpg'
p81
sa(dp82
g3
(lp83
(dp84
g6
F110
sg7
F63
sS'y'
F315
sS'x'
F822
sg8
g9
sasg8
g10
sg11
S'img_07701.jpg'
p85
sa(dp86
g3
(lp87
(dp88
g6
F258
sg7
F184
sS'y'
F145
sS'x'
F471
sg8
g9
sasg8
g10
sg11
S'img_07694.jpg'
p89
sa(dp90
g3
(lp91
(dp92
g6
F117
sg7
F361
sS'y'
F72
sS'x'
F375
sg8
g9
sa(dp93
g6
F144
sg7
F325
sS'y'
F79
sS'x'
F685
sg8
g9
sa(dp94
g6
F182
sg7
F316
sS'y'
F321
sS'x'
F817
sg8
g9
sa(dp95
g6
F229
sg7
F324
sS'y'
F124
sS'x'
F320
sg8
g9
sasg8
g10
sg11
S'img_07686.jpg'
p96
sa(dp97
g3
(lp98
(dp99
g6
F168
sg7
F155
sS'y'
F50
sS'x'
F217
sg8
g9
sasg8
g10
sg11
S'img_07684.jpg'
p100
sa(dp101
g3
(lp102
(dp103
g6
F120
sg7
F113
sS'y'
F322
sS'x'
F459
sg8
g9
sasg8
g10
sg11
S'img_07670.jpg'
p104
sa(dp105
g3
(lp106
(dp107
g6
F142
sg7
F101
sS'y'
F120
sS'x'
F384
sg8
g9
sasg8
g10
sg11
S'img_07638.jpg'
p108
sa(dp109
g3
(lp110
(dp111
g6
F138
sg7
F329
sS'y'
F54
sS'x'
F266
sg8
g9
sasg8
g10
sg11
S'img_07617.jpg'
p112
sa(dp113
g3
(lp114
(dp115
g6
F153
sg7
F347
sS'y'
F184
sS'x'
F659
sg8
g9
sasg8
g10
sg11
S'img_07614.jpg'
p116
sa(dp117
g3
(lp118
(dp119
g6
F146
sg7
F157
sS'y'
F356
sS'x'
F639
sg8
g9
sasg8
g10
sg11
S'img_07603.jpg'
p120
sa(dp121
g3
(lp122
(dp123
g6
F118
sg7
F153
sS'y'
F344
sS'x'
F766
sg8
g9
sasg8
g10
sg11
S'img_07587.jpg'
p124
sa(dp125
g3
(lp126
(dp127
g6
F157
sg7
F386
sS'y'
F136
sS'x'
F524
sg8
g9
sasg8
g10
sg11
S'img_07576.jpg'
p128
sa(dp129
g3
(lp130
(dp131
g6
F137
sg7
F114
sS'y'
F376
sS'x'
F225
sg8
g9
sasg8
g10
sg11
S'img_07559.jpg'
p132
sa(dp133
g3
(lp134
(dp135
g6
F180
sg7
F377
sS'y'
F213
sS'x'
F370
sg8
g9
sasg8
g10
sg11
S'img_07527.jpg'
p136
sa(dp137
g3
(lp138
(dp139
g6
F135
sg7
F311
sS'y'
F87
sS'x'
F249
sg8
g9
sa(dp140
g6
F158
sg7
F393
sS'y'
F330
sS'x'
F582
sg8
g9
sasg8
g10
sg11
S'img_07520.jpg'
p141
sa(dp142
g3
(lp143
(dp144
g6
F239
sg7
F250
sS'y'
F156
sS'x'
F683
sg8
g9
sa(dp145
g6
F105
sg7
F366
sS'y'
F191
sS'x'
F312
sg8
g9
sa(dp146
g6
F106
sg7
F322
sS'y'
F74
sS'x'
F359
sg8
g9
sasg8
g10
sg11
S'img_07511.jpg'
p147
sa(dp148
g3
(lp149
(dp150
g6
F162
sg7
F191
sS'y'
F229
sS'x'
F309
sg8
g9
sasg8
g10
sg11
S'img_07489.jpg'
p151
sa(dp152
g3
(lp153
(dp154
g6
F141
sg7
F331
sS'y'
F59
sS'x'
F257
sg8
g9
sasg8
g10
sg11
S'img_07477.jpg'
p155
sa(dp156
g3
(lp157
(dp158
g6
F249
sg7
F358
sS'y'
F107
sS'x'
F601
sg8
g9
sasg8
g10
sg11
S'img_07476.jpg'
p159
sa(dp160
g3
(lp161
sg8
g10
sg11
S'img_07470.jpg'
p162
sa(dp163
g3
(lp164
(dp165
g6
F144
sg7
F327.00000000000011
sS'y'
F601.00000000000011
sS'x'
F761.00000000000011
sg8
g9
sasg8
g10
sg11
S'img_07465.jpg'
p166
sa(dp167
g3
(lp168
(dp169
g6
F163.00000000000003
sg7
F234.00000000000011
sS'y'
F9.0000000000000018
sS'x'
F756.00000000000011
sg8
g9
sasg8
g10
sg11
S'img_07459.jpg'
p170
sa(dp171
g3
(lp172
(dp173
g6
F164.00000000000006
sg7
F160
sS'y'
F48.000000000000014
sS'x'
F214.00000000000006
sg8
g9
sasg8
g10
sg11
S'img_07443.jpg'
p174
sa(dp175
g3
(lp176
sg8
g10
sg11
S'img_07423.jpg'
p177
sa(dp178
g3
(lp179
(dp180
g6
F110.32190165971402
sg7
F342.75583187407324
sS'y'
F84.215192106651912
sS'x'
F542.34583716683835
sg8
g9
sa(dp181
g6
F185.27342263463422
sg7
F312.43836271567852
sS'y'
F190.32633416103332
sS'x'
F768.04255201266551
sg8
g9
sasg8
g10
sg11
S'img_07404.jpg'
p182
sa(dp183
g3
(lp184
(dp185
g6
F156.64025731837256
sg7
F362.96747797966981
sS'y'
F116.21696510717965
sS'x'
F178.53620726610205
sg8
g9
sa(dp186
g6
F154.11380155517298
sg7
F353.70380684793804
sS'y'
F54.739874869323742
sS'x'
F514.55482377164321
sg8
g9
sasg8
g10
sg11
S'img_07398.jpg'
p187
sa(dp188
g3
(lp189
(dp190
g6
F128.84924392317743
sg7
F315.8069703999447
sS'y'
F53.897722948257226
sS'x'
F269.48861474128614
sg8
g9
sa(dp191
g6
F165.90392845010427
sg7
F302.33253966288032
sS'y'
F156.64025731837256
sS'x'
F492.65887382391372
sg8
g9
sasg8
g10
sg11
S'img_07397.jpg'
p192
sa(dp193
g3
(lp194
(dp195
g6
F70.740761369587631
sg7
F153.2716496341065
sS'y'
F371.38899719033492
sS'x'
F171.79899189756992
sg8
g9
sasg8
g10
sg11
S'img_07396.jpg'
p196
sa(dp197
g3
(lp198
(dp199
g6
F177.69405534503557
sg7
F410.12798555939492
sS'y'
F160.00886500263863
sS'x'
F512.87051992951012
sg8
g9
sasg8
g10
sg11
S'img_07381.jpg'
p200
sa(dp201
g3
(lp202
(dp203
g6
F187.79987839783371
sg7
F254.32988016208878
sS'y'
F356.23026261113762
sS'x'
F38.738988369059882
sg8
g9
sasg8
g10
sg11
S'img_07366.jpg'
p204
sa(dp205
g3
(lp206
(dp207
g6
F133.06000352851004
sg7
F370.54684526926837
sS'y'
F68.214305606388052
sS'x'
F505.2911526399115
sg8
g9
sa(dp208
g6
F135.58645929170962
sg7
F298.12178005754777
sS'y'
F139.79721889704217
sS'x'
F234.96038597755884
sg8
g9
sasg8
g10
sg11
S'img_07335.jpg'
p209
sa(dp210
g3
(lp211
(dp212
g6
F165.06177652903773
sg7
F86.741647869851505
sS'y'
F267.80431089915311
sS'x'
F238.32899366182491
sg8
g9
sasg8
g10
sg11
S'img_07300.jpg'
p213
sa(dp214
g3
(lp215
(dp216
g6
F219.80165139836151
sg7
F228.22317060902674
sS'y'
F228.22317060902668
sS'x'
F478.34229116578285
sg8
g9
sasg8
g10
sg11
S'img_07271.jpg'
p217
sa(dp218
g3
(lp219
sg8
g10
sg11
S'img_07232.jpg'
p220
sa(dp221
g3
(lp222
(dp223
g6
F113.69050934398007
sg7
F165.06177652903773
sS'y'
F197.06354952956548
sS'x'
F291.38456468901563
sg8
g9
sasg8
g10
sg11
S'img_07222.jpg'
p224
sa(dp225
g3
(lp226
(dp227
g6
F145.69228234450782
sg7
F306.54329926821299
sS'y'
F311.59621079461209
sS'x'
F179.37835918716857
sg8
g9
sa(dp228
g6
F122.11202855464528
sg7
F321.70203384741029
sS'y'
F73.267217132787167
sS'x'
F290.54241276794909
sg8
g9
sasg8
g10
sg11
S'img_07218.jpg'
p229
sa(dp230
g3
(lp231
(dp232
g6
F189.4841822399668
sg7
F376.44190871673402
sS'y'
F173.48329573970295
sS'x'
F586.13773706229733
sg8
g9
sasg8
g10
sg11
S'img_07214.jpg'
p233
sa(dp234
g3
(lp235
(dp236
g6
F120.42772471251223
sg7
F146.53443426557436
sS'y'
F160.85101692370515
sS'x'
F303.17469158394687
sg8
g9
sasg8
g10
sg11
S'img_07207.jpg'
p237
sa(dp238
g3
(lp239
(dp240
g6
F170.11468805543689
sg7
F120.42772471251226
sS'y'
F415.18089708579396
sS'x'
F544.03014100897133
sg8
g9
sa(dp241
g6
F169.27253613437034
sg7
F122.95418047571172
sS'y'
F436.2346951124569
sS'x'
F616.45520622069205
sg8
g9
sasg8
g10
sg11
S'img_07200.jpg'
p242
sa(dp243
g3
(lp244
(dp245
g6
F363.35486786336037
sg7
F700.58618313523743
sS'y'
F522.47105182966857
sS'x'
F102.11934194852613
sg8
g9
sasg8
g10
sg11
S'img_07195.jpg'
p246
sa(dp247
g3
(lp248
sg8
g10
sg11
S'img_07193.jpg'
p249
sa(dp250
g3
(lp251
sg8
g10
sg11
S'img_07180.jpg'
p252
sa(dp253
g3
(lp254
(dp255
g6
F186.42717076649538
sg7
F337.23131527187689
sS'y'
F207.80098652316363
sS'x'
F408.47736779410451
sg8
g9
sa(dp256
g6
F149.61671029667781
sg7
F320.60723635002375
sS'y'
F311.10776268039353
sS'x'
F769.45736724005735
sg8
g9
sasg8
g10
sg11
S'img_07171.jpg'
p257
sa(dp258
g3
(lp259
(dp260
g6
F125.86802612260198
sg7
F365.72973628076795
sS'y'
F143.67953925315885
sS'x'
F572.34328859522782
sg8
g9
sasg8
g10
sg11
S'img_07168.jpg'
p261
sa(dp262
g3
(lp263
(dp264
g6
F169.80309184464224
sg7
F108.0565129920451
sS'y'
F194.73921022742192
sS'x'
F629.34013061300982
sg8
g9
sasg8
g10
sg11
S'img_07155.jpg'
p265
sa(dp266
g3
(lp267
(dp268
g6
F182.86486814038398
sg7
F251.73605224520395
sS'y'
F258.8606574974267
sS'x'
F445.28782826392205
sg8
g9
sasg8
g10
sg11
S'img_07136.jpg'
p269
sa(dp270
g3
(lp271
(dp272
g6
F172.17796026204985
sg7
F112.80624982686027
sS'y'
F421.53914408984622
sS'x'
F567.59355176041265
sg8
g9
sasg8
g10
sg11
S'img_07126.jpg'
p273
sa(dp274
g3
(lp275
(dp276
g6
F153.17901292278916
sg7
F280.23447325409501
sS'y'
F212.5507233579788
sS'x'
F352.66795998502624
sg8
g9
sasg8
g10
sg11
S'img_07117.jpg'
p277
sa(dp278
g3
(lp279
(dp280
g6
F166.24078921853089
sg7
F180.48999972297645
sS'y'
F15.436644713149297
sS'x'
F773.01966986616867
sg8
g9
sasg8
g10
sg11
S'img_07108.jpg'
p281
sa(dp282
g3
(lp283
(dp284
g6
F87.870131444080641
sg7
F165.0533550098271
sS'y'
F173.36539447075364
sS'x'
F698.21131471782974
sg8
g9
sasg8
g10
sg11
S'img_07096.jpg'
p285
sa(dp286
g3
(lp287
(dp288
g6
F150.8041445053816
sg7
F170.99052605334603
sS'y'
F55.80940780907823
sS'x'
F201.86381547964467
sg8
g9
sasg8
g10
sg11
S'img_07081.jpg'
p289
sa(dp290
g3
(lp291
(dp292
g6
F136.5549340009361
sg7
F334.85644685446937
sS'y'
F58.184276226485814
sS'x'
F250.54861803650013
sg8
g9
sa(dp293
g6
F131.80519716612093
sg7
F360.97999944595279
sS'y'
F179.3025655142726
sS'x'
F642.40190690875158
sg8
g9
sasg8
g10
sg11
S'img_07078.jpg'
p294
sa(dp295
g3
(lp296
(dp297
g6
F134.18006558352849
sg7
F286.17164429761391
sS'y'
F233.92453911464705
sS'x'
F366.91717048947174
sg8
g9
sasg8
g10
sg11
S'img_07075.jpg'
p298
sa(dp299
g3
(lp300
sg8
g10
sg11
S'img_07071.jpg'
p301
sa(dp302
g3
(lp303
sg8
g10
sg11
S'img_07040.jpg'
p304
sa(dp305
g3
(lp306
(dp307
g6
F232.73710490594326
sg7
F287.35907850631776
sS'y'
F245.79888120168496
sS'x'
F484.47315715114718
sg8
g9
sasg8
g10
sg11
S'img_07020.jpg'
p308
sa(dp309
g3
(lp310
(dp311
g6
F129.43032874871335
sg7
F343.16848631539597
sS'y'
F70.058618313523738
sS'x'
F535.53282812541022
sg8
g9
sa(dp312
g6
F191.17690760131055
sg7
F303.98315742817067
sS'y'
F192.36434181001434
sS'x'
F776.5819724922801
sg8
g9
sasg8
g10
sg11
S'img_07016.jpg'
p313
sa(dp314
g3
(lp315
(dp316
g6
F199.48894706223706
sg7
F414.41453883762347
sS'y'
F100.93190773982234
sS'x'
F522.47105182966857
sg8
g9
sa(dp317
g6
F118.74342087037921
sg7
F274.29730221057594
sS'y'
F100.93190773982234
sS'x'
F193.55177601871813
sg8
g9
sasg8
g10
sg11
S'img_07001.jpg'
p318
sa(dp319
g3
(lp320
(dp321
g6
F243.42401278427741
sg7
F166.24078921853095
sS'y'
F429.85118355077276
sS'x'
F729.08460414412832
sg8
g9
sasg8
g10
sg11
S'img_07000.jpg'
p322
sa(dp323
g3
(lp324
(dp325
g6
F223.23763123631292
sg7
F314.67006530650491
sS'y'
F92.61986827889578
sS'x'
F345.54335473280349
sg8
g9
sasg8
g10
sg11
S'img_06999.jpg'
p326
sa(dp327
g3
(lp328
(dp329
g6
F175.74026288816125
sg7
F111.61881561815653
sS'y'
F236.29940753205463
sS'x'
F568.78098596911639
sg8
g9
sasg8
g10
sg11
S'img_06991.jpg'
p330
sa(dp331
g3
(lp332
(dp333
g6
F130.61776295741714
sg7
F281.4219074627988
sS'y'
F7.1246052522227528
sS'x'
F341.98105210669212
sg8
g9
sasg8
g10
sg11
S'img_06963.jpg'
p334
sa(dp335
g3
(lp336
(dp337
g6
F178.11513130556887
sg7
F222.0501970276091
sS'y'
F375.22920995039829
sS'x'
F630.52756482171367
sg8
g9
sasg8
g10
sg11
S'img_06960.jpg'
p338
sa(dp339
g3
(lp340
sg8
g10
sg11
S'img_06935.jpg'
p341
sa(dp342
g3
(lp343
(dp344
g6
F150.8041445053816
sg7
F121.11828928778675
sS'y'
F346.73078894150729
sS'x'
F605.59144643893399
sg8
g9
sasg8
g10
sg11
S'img_06907.jpg'
p345
sa(dp346
g3
(lp347
(dp348
g6
F151.99157871408539
sg7
F408.47736779410445
sS'y'
F53.434539391670647
sS'x'
F459.53703876836755
sg8
g9
sasg8
g10
sg11
S'img_06906.jpg'
p349
sa(dp350
g3
(lp351
(dp352
g6
F178.11513130556887
sg7
F151.99157871408534
sS'y'
F610.34118327374915
sS'x'
F814.57986717080144
sg8
g9
sasg8
g10
sg11
S'img_06900.jpg'
p353
sa(dp354
g3
(lp355
(dp356
g6
F200.67638127094085
sg7
F394.22815728965884
sS'y'
F543.84486758633682
sS'x'
F659.02598583060467
sg8
g9
sasg8
g10
sg11
S'img_06884.jpg'
p357
sa(dp358
g3
(lp359
sg8
g10
sg11
S'img_06866.jpg'
p360
sa(dp361
g3
(lp362
(dp363
g6
F180.48999972297642
sg7
F103.30677615722993
sS'y'
F242.23657857557359
sS'x'
F566.4061175517088
sg8
g9
sasg8
g10
sg11
S'img_06844.jpg'
p364
sa(dp365
g3
(lp366
(dp367
g6
F182.864868140384
sg7
F125.86802612260203
sS'y'
F223.23763123631292
sS'x'
F710.08565680486765
sg8
g9
sasg8
g10
sg11
S'img_06843.jpg'
p368
sa(dp369
g3
(lp370
(dp371
g6
F147.24184187927023
sg7
F66.496315687412391
sS'y'
F33.248157843706181
sS'x'
F448.85013089003343
sg8
g9
sasg8
g10
sg11
S'img_06804.jpg'
p372
sa(dp373
g3
(lp374
(dp375
g6
F93.8073024875996
sg7
F204.23868389705223
sS'y'
F360.97999944595279
sS'x'
F105.6816445746375
sg8
g9
sasg8
g10
sg11
S'img_06781.jpg'
p376
sa(dp377
g3
(lp378
(dp379
g6
F113.99368403556403
sg7
F321.79467055872766
sS'y'
F251.73605224520392
sS'x'
F345.54335473280349
sg8
g9
sasg8
g10
sg11
S'img_06758.jpg'
p380
sa(dp381
g3
(lp382
(dp383
g6
F205.42611810575602
sg7
F303.9831574281709
sS'y'
F299.23342059335562
sS'x'
F844.26572238839617
sg8
g9
sasg8
g10
sg11
S'img_06726.jpg'
p384
sa(dp385
g3
(lp386
(dp387
g6
F154.36644713149298
sg7
F357.41769681984147
sS'y'
F138.92980241834368
sS'x'
F535.53282812541022
sg8
g9
sasg8
g10
sg11
S'img_06707.jpg'
p388
sa(dp389
g3
(lp390
(dp391
g6
F182.86486814038398
sg7
F289.73394692372534
sS'y'
F148.42927608797402
sS'x'
F474.97368348151684
sg8
g9
sasg8
g10
sg11
S'img_06680.jpg'
p392
sa(dp393
g3
(lp394
(dp395
g6
F122.30572349649057
sg7
F371.66690732428691
sS'y'
F248.17374961909255
sS'x'
F415.60197304632726
sg8
g9
sasg8
g10
sg11
S'img_06653.jpg'
p396
sa(dp397
g3
(lp398
(dp399
g6
F216.1130259840902
sg7
F261.23552591483428
sS'y'
F421.53914408984622
sS'x'
F572.34328859522782
sg8
g9
sa(dp400
g6
F94.994736696303335
sg7
F137.74236820963984
sS'y'
F617.4657885259719
sS'x'
F553.34434125596715
sg8
g9
sa(dp401
g6
F132.99263137482473
sg7
F113.99368403556412
sS'y'
F366.91717048947174
sS'x'
F594.9045385605998
sg8
g9
sasg8
g10
sg11
S'img_06629.jpg'
p402
sa(dp403
g3
(lp404
(dp405
g6
F162.67848659241952
sg7
F328.91927581095035
sS'y'
F298.04598638465183
sS'x'
F860.88980131024925
sg8
g9
sa(dp406
g6
F108.05651299204504
sg7
F299.23342059335562
sS'y'
F434.60092038558793
sS'x'
F840.70341976228485
sg8
g9
sa(dp407
g6
F131.80519716612093
sg7
F308.73289426298601
sS'y'
F72.433486730931321
sS'x'
F482.09828873373959
sg8
g9
sasg8
g10
sg11
S'img_06627.jpg'
p408
sa(dp409
g3
(lp410
(dp411
g6
F189.98947339260675
sg7
F252.92348645390769
sS'y'
F224.42506544501671
sS'x'
F320.60723635002387
sg8
g9
sasg8
g10
sg11
S'img_06591.jpg'
p412
sa(dp413
g3
(lp414
(dp415
g6
F186.42717076649535
sg7
F429.85118355077282
sS'y'
F558.09407809078232
sS'x'
F619.84065694337949
sg8
g9
sasg8
g10
sg11
S'img_06588.jpg'
p416
sa(dp417
g3
(lp418
(dp419
g6
F207.80098652316366
sg7
F161.49105238371578
sS'y'
F503.47210449040784
sS'x'
F773.01966986616867
sg8
g9
sasg8
g10
sg11
S'img_06587.jpg'
p420
sa(dp421
g3
(lp422
sg8
g10
sg11
S'img_06583.jpg'
p423
sa(dp424
g3
(lp425
(dp426
g6
F243.42401278427741
sg7
F100.93190773982235
sS'y'
F460.72447297707134
sS'x'
F534.34539391670648
sg8
g9
sasg8
g10
sg11
S'img_06568.jpg'
p427
sa(dp428
g3
(lp429
sg8
g10
sg11
S'img_06563.jpg'
p430
sa(dp431
g3
(lp432
(dp433
g6
F167.42822342723468
sg7
F137.74236820963986
sS'y'
F52.247105182966855
sS'x'
F229.17480227983188
sg8
g9
sasg8
g10
sg11
S'img_06562.jpg'
p434
sa(dp435
g3
(lp436
(dp437
g6
F167.42822342723468
sg7
F395.4155914983628
sS'y'
F134.18006558352852
sS'x'
F522.47105182966857
sg8
g9
sasg8
g10
sg11
S'img_06546.jpg'
p438
sa(dp439
g3
(lp440
(dp441
g6
F108.0565129920451
sg7
F59.371710435189584
sS'y'
F555.71920967337473
sS'x'
F572.34328859522782
sg8
g9
sasg8
g10
sg11
S'img_06545.jpg'
p442
sa(dp443
g3
(lp444
(dp445
g6
F153.17901292278918
sg7
F374.04177574169455
sS'y'
F61.746578852597189
sS'x'
F530.78309129059505
sg8
g9
sasg8
g10
sg11
S'img_06514.jpg'
p446
sa(dp447
g3
(lp448
(dp449
g6
F153.17901292278918
sg7
F153.17901292278916
sS'y'
F61.746578852597189
sS'x'
F214.92559177538638
sg8
g9
sasg8
g10
sg11
S'img_06512.jpg'
p450
sa(dp451
g3
(lp452
sg8
g10
sg11
S'img_06492.jpg'
p453
sa(dp454
g3
(lp455
(dp456
g6
F128.24289454000953
sg7
F401.35276254188176
sS'y'
F207.80098652316363
sS'x'
F460.72447297707134
sg8
g9
sa(dp457
g6
F155.55388134019677
sg7
F346.7307889415074
sS'y'
F279.04703904539116
sS'x'
F787.26888037061417
sg8
g9
sa(dp458
g6
F125.86802612260198
sg7
F327.73184160224662
sS'y'
F73.620920939635113
sS'x'
F654.2762489957895
sg8
g9
sa(dp459
g6
F148.42927608797402
sg7
F338.4187494805808
sS'y'
F110.43138140945267
sS'x'
F514.15901236874197
sg8
g9
sa(dp460
g6
F130.61776295741714
sg7
F254.11092066261153
sS'y'
F43.935065722040306
sS'x'
F287.3590785063177
sg8
g9
sasg8
g10
sg11
S'img_06471.jpg'
p461
sa(dp462
g3
(lp463
(dp464
g6
F102.11934194852608
sg7
F68.871184104819918
sS'y'
F263.61039433224187
sS'x'
F824.07934084043177
sg8
g9
sasg8
g10
sg11
S'img_06462.jpg'
p465
sa(dp466
g3
(lp467
(dp468
g6
F200.67638127094091
sg7
F119.93085507908302
sS'y'
F503.47210449040784
sS'x'
F740.95894623116624
sg8
g9
sasg8
g10
sg11
S'img_06461.jpg'
p469
sa(dp470
g3
(lp471
(dp472
g6
F118.7434208703792
sg7
F125.86802612260203
sS'y'
F205.42611810575605
sS'x'
F585.40506489096947
sg8
g9
sa(dp473
g6
F113.99368403556406
sg7
F205.42611810575613
sS'y'
F331.29414422835799
sS'x'
F910.7620380758085
sg8
g9
sasg8
g10
sg11
S'img_06458.jpg'
p474
sa(dp475
g3
(lp476
(dp477
g6
F146.05440767056643
sg7
F472.5988150641092
sS'y'
F602.02914381282255
sS'x'
F763.52019619653834
sg8
g9
sasg8
g10
sg11
S'img_06422.jpg'
p478
sa(dp479
g3
(lp480
(dp481
g6
F173.36539447075359
sg7
F345.54335473280355
sS'y'
F572.34328859522782
sS'x'
F748.08355148338899
sg8
g9
sasg8
g10
sg11
S'img_06421.jpg'
p482
sa(dp483
g3
(lp484
(dp485
g6
F186.42717076649535
sg7
F332.4815784370619
sS'y'
F318.23236793261628
sS'x'
F815.76730137950517
sg8
g9
sa(dp486
g6
F124.68059191389818
sg7
F332.48157843706178
sS'y'
F80.745526191857863
sS'x'
F676.83749896116149
sg8
g9
sa(dp487
g6
F109.24394720074886
sg7
F359.79256523724899
sS'y'
F73.620920939635113
sS'x'
F374.04177574169449
sg8
g9
sa(dp488
g6
F256.48578908001912
sg7
F317.04493372391249
sS'y'
F124.68059191389817
sS'x'
F317.04493372391249
sg8
g9
sasg8
g10
sg11
S'img_06420.jpg'
p489
sa(dp490
g3
(lp491
(dp492
g6
F166.24078921853089
sg7
F360.9799994459529
sS'y'
F81.932960400561655
sS'x'
F730.27203835283217
sg8
g9
sasg8
g10
sg11
S'img_06390.jpg'
p493
sa(dp494
g3
(lp495
(dp496
g6
F112.80624982686024
sg7
F339.60618368928465
sS'y'
F205.42611810575605
sS'x'
F775.39453828357625
sg8
g9
sasg8
g10
sg11
S'img_06388.jpg'
p497
sa(dp498
g3
(lp499
(dp500
g6
F151.99157871408539
sg7
F71.246052522227501
sS'y'
F358.6051310285452
sS'x'
F651.90138057838192
sg8
g9
sasg8
g10
sg11
S'img_06377.jpg'
p501
sa(dp502
g3
(lp503
(dp504
g6
F159.11618396630814
sg7
F313.48263109780117
sS'y'
F58.184276226485814
sS'x'
F470.22394664670168
sg8
g9
sa(dp505
g6
F185.23973655779156
sg7
F327.73184160224662
sS'y'
F273.1098680018722
sS'x'
F845.45315659710002
sg8
g9
sa(dp506
g6
F105.68164457463746
sg7
F312.29519688909738
sS'y'
F410.85223621151209
sS'x'
F841.89085397098859
sg8
g9
sasg8
g10
sg11
S'img_06360.jpg'
p507
sa(dp508
g3
(lp509
(dp510
g6
F104.49421036593371
sg7
F317.04493372391244
sS'y'
F122.30572349649059
sS'x'
F412.03967042021588
sg8
g9
sa(dp511
g6
F155.55388134019677
sg7
F309.9203284716898
sS'y'
F333.66901264576558
sS'x'
F872.76414339728717
sg8
g9
sasg8
g10
sg11
S'img_06313.jpg'
p512
sa(dp513
g3
(lp514
(dp515
g6
F128.24289454000956
sg7
F389.4784204548439
sS'y'
F121.11828928778679
sS'x'
F566.4061175517088
sg8
g9
sasg8
g10
sg11
S'img_06282.jpg'
p516
sa(dp517
g3
(lp518
(dp519
g6
F155.55388134019677
sg7
F108.0565129920451
sS'y'
F351.48052577632245
sS'x'
F612.71605169115674
sg8
g9
sasg8
g10
sg11
S'img_06254.jpg'
p520
sa(dp521
g3
(lp522
(dp523
g6
F186.42717076649529
sg7
F106.86907878334125
sS'y'
F396.60302570706659
sS'x'
F732.64690677023975
sg8
g9
sasg8
g10
sg11
S'img_06231.jpg'
p524
sa(dp525
g3
(lp526
(dp527
g6
F151.99157871408539
sg7
F393.0407230809551
sS'y'
F135.36749979223231
sS'x'
F515.34644657744582
sg8
g9
sasg8
g10
sg11
S'img_06213.jpg'
p528
sa(dp529
g3
(lp530
(dp531
g6
F151.99157871408539
sg7
F244.6114469929812
sS'y'
F7.1246052522227528
sS'x'
F749.27098569209284
sg8
g9
sasg8
g10
sg11
S'img_06187.jpg'
p532
sa(dp533
g3
(lp534
sg8
g10
sg11
S'img_06175.jpg'
p535
sa(dp536
g3
(lp537
(dp538
g6
F185.23973655779159
sg7
F360.97999944595279
sS'y'
F71.246052522227529
sS'x'
F322.98210476743145
sg8
g9
sa(dp539
g6
F117.55598666167542
sg7
F287.35907850631781
sS'y'
F117.55598666167542
sS'x'
F841.89085397098859
sg8
g9
sasg8
g10
sg11
S'img_06160.jpg'
p540
sa(dp541
g3
(lp542
(dp543
g6
F140.11723662704748
sg7
F73.620920939635084
sS'y'
F53.434539391670647
sS'x'
F438.1632230116993
sg8
g9
sasg8
g10
sg11
S'img_06158.jpg'
p544
sa(dp545
g3
(lp546
(dp547
g6
F157.92874975760435
sg7
F408.47736779410445
sS'y'
F124.68059191389817
sS'x'
F431.03861775947655
sg8
g9
sa(dp548
g6
F187.61460497519914
sg7
F192.36434181001431
sS'y'
F166.24078921853089
sS'x'
F146.05440767056643
sg8
g9
sasg8
g10
sg11
S'img_06153.jpg'
p549
sa(dp550
g3
(lp551
(dp552
g6
F204.23868389705228
sg7
F134.18006558352852
sS'y'
F339.60618368928453
sS'x'
F784.89401195320659
sg8
g9
sasg8
g10
sg11
S'img_06142.jpg'
p553
sa(dp554
g3
(lp555
(dp556
g6
F154.36644713149298
sg7
F224.42506544501668
sS'y'
F406.10249937669693
sS'x'
F632.90243323912125
sg8
g9
sasg8
g10
sg11
S'img_06123.jpg'
p557
sa(dp558
g3
(lp559
(dp560
g6
F123.49315770519439
sg7
F360.97999944595279
sS'y'
F166.24078921853089
sS'x'
F724.33486730931315
sg8
g9
sasg8
g10
sg11
S'img_06115.jpg'
p561
sa(dp562
g3
(lp563
(dp564
g6
F51.059670974263099
sg7
F129.43032874871341
sS'y'
F511.78414395133439
sS'x'
F503.47210449040784
sg8
g9
sasg8
g10
sg11
S'img_06114.jpg'
p565
sa(dp566
g3
(lp567
(dp568
g6
F125.86802612260195
sg7
F236.2994075320546
sS'y'
F242.23657857557359
sS'x'
F330.1067100196542
sg8
g9
sasg8
g10
sg11
S'img_06104.jpg'
p569
sa(dp570
g3
(lp571
(dp572
g6
F150.8041445053816
sg7
F328.91927581095041
sS'y'
F47.497368348151682
sS'x'
F262.42296012353808
sg8
g9
sasg8
g10
sg11
S'img_06096.jpg'
p573
sa(dp574
g3
(lp575
(dp576
g6
F117.55598666167541
sg7
F360.97999944595279
sS'y'
F72.433486730931321
sS'x'
F515.34644657744582
sg8
g9
sasg8
g10
sg11
S'img_06089.jpg'
p577
sa(dp578
g3
(lp579
(dp580
g6
F168.61565763593848
sg7
F92.61986827889578
sS'y'
F154.36644713149298
sS'x'
F155.55388134019677
sg8
g9
sasg8
g10
sg11
S'img_06075.jpg'
p581
sa(dp582
g3
(lp583
(dp584
g6
F115.18111824426782
sg7
F312.29519688909733
sS'y'
F70.058618313523738
sS'x'
F293.29624954983666
sg8
g9
sa(dp585
g6
F128.24289454000956
sg7
F303.98315742817078
sS'y'
F321.79467055872766
sS'x'
F174.55282867945743
sg8
g9
sa(dp586
g6
F115.18111824426782
sg7
F220.86276281890537
sS'y'
F226.7999338624243
sS'x'
F708.89822259616392
sg8
g9
sa(dp587
g6
F136.5549340009361
sg7
F121.11828928778681
sS'y'
F112.80624982686025
sS'x'
F80.745526191857863
sg8
g9
sasg8
g10
sg11
S'img_06064.jpg'
p588
sa(dp589
g3
(lp590
(dp591
g6
F185.23973655779159
sg7
F211.36328914927498
sS'y'
F211.363289149275
sS'x'
F300.42085480205941
sg8
g9
sasg8
g10
sg11
S'img_06062.jpg'
p592
sa(dp593
g3
(lp594
(dp595
g6
F118.74342087037923
sg7
F83.120394609265418
sS'y'
F268.36013116705703
sS'x'
F790.8311829967256
sg8
g9
sa(dp596
g6
F106.86907878334131
sg7
F64.121447270004751
sS'y'
F294.48368375854045
sS'x'
F866.82697235376827
sg8
g9
sasg8
g10
sg11
S'img_06058.jpg'
p597
sa(dp598
g3
(lp599
(dp600
g6
F65.308881478708571
sg7
F157.92874975760435
sS'y'
F147.24184187927023
sS'x'
F599.65427539541497
sg8
g9
sa(dp601
g6
F102.11934194852611
sg7
F66.496315687412448
sS'y'
F205.42611810575605
sS'x'
F698.21131471782974
sg8
g9
sasg8
g10
sg11
S'img_05980.jpg'
p602
sa(dp603
g3
(lp604
(dp605
g6
F254.11092066261153
sg7
F572.34328859522782
sS'y'
F492.78519661207372
sS'x'
F553.34434125596715
sg8
g9
sasg8
g10
sg11
S'img_05970.jpg'
p606
sa(dp607
g3
(lp608
(dp609
g6
F181.67743393168024
sg7
F142.492105044455
sS'y'
F439.35065722040309
sS'x'
F694.64901209171842
sg8
g9
sasg8
g10
sg11
S'img_05938.jpg'
p610
sa(dp611
g3
(lp612
(dp613
g6
F169.80309184464227
sg7
F131.80519716612093
sS'y'
F351.48052577632245
sS'x'
F588.9673675170809
sg8
g9
sa(dp614
g6
F153.17901292278918
sg7
F75.995789357042781
sS'y'
F346.73078894150729
sS'x'
F707.71078838746007
sg8
g9
sasg8
g10
sg11
S'img_05924.jpg'
p615
sa(dp616
g3
(lp617
(dp618
g6
F146.05440767056643
sg7
F85.495263026673001
sS'y'
F357.41769681984141
sS'x'
F648.33907795227049
sg8
g9
sasg8
g10
sg11
S'img_05890.jpg'
p619
sa(dp620
g3
(lp621
(dp622
g6
F187.61460497519914
sg7
F372.85434153299076
sS'y'
F155.55388134019677
sS'x'
F374.04177574169449
sg8
g9
sasg8
g10
sg11
S'img_05889.jpg'
p623
sa(dp624
g3
(lp625
(dp626
g6
F142.49210504445506
sg7
F417.97684146373484
sS'y'
F80.745526191857863
sS'x'
F484.47315715114718
sg8
g9
sa(dp627
g6
F180.48999972297639
sg7
F157.92874975760435
sS'y'
F175.74026288816123
sS'x'
F123.49315770519438
sg8
S'LAG'
p628
sasg8
g10
sg11
S'img_05885.jpg'
p629
sa(dp630
g3
(lp631
(dp632
g6
F167.42822342723468
sg7
F301.60828901076326
sS'y'
F53.434539391670647
sS'x'
F352.66795998502624
sg8
g9
sasg8
g10
sg11
S'img_05884.jpg'
p633
sa(dp634
g3
(lp635
(dp636
g6
F54.621973600374417
sg7
F144.8669734618627
sS'y'
F298.04598638465183
sS'x'
F717.2102620570904
sg8
g9
sasg8
g10
sg11
S'img_05883.jpg'
p637
sa(dp638
g3
(lp639
(dp640
g6
F129.43032874871335
sg7
F137.74236820963984
sS'y'
F360.97999944595279
sS'x'
F630.52756482171367
sg8
g9
sasg8
g10
sg11
S'img_05862.jpg'
p641
sa(dp642
g3
(lp643
(dp644
g6
F99.744473531118558
sg7
F195.92664443612568
sS'y'
F326.54440739354283
sS'x'
F625.7778279868985
sg8
g9
sasg8
g10
sg11
S'img_05849.jpg'
p645
sa(dp646
g3
(lp647
(dp648
g6
F93.8073024875996
sg7
F178.11513130556881
sS'y'
F370.47947311558312
sS'x'
F264.79782854094566
sg8
g9
sasg8
g10
sg11
S'img_05832.jpg'
p649
sa(dp650
g3
(lp651
(dp652
g6
F321.79467055872766
sg7
F140.11723662704748
sS'y'
F169.80309184464227
sS'x'
F301.6082890107632
sg8
g9
sasg8
g10
sg11
S'img_05823.jpg'
p653
sa(dp654
g3
(lp655
(dp656
g6
F169.80309184464227
sg7
F121.11828928778675
sS'y'
F346.73078894150729
sS'x'
F605.59144643893399
sg8
g9
sasg8
g10
sg11
S'img_05821.jpg'
p657
sa(dp658
g3
(lp659
(dp660
g6
F122.3057234964906
sg7
F106.86907878334125
sS'y'
F303.98315742817078
sS'x'
F476.16111769022064
sg8
g9
sasg8
g10
sg11
S'img_05818.jpg'
p661
sa(dp662
g3
(lp663
(dp664
g6
F224.42506544501668
sg7
F106.86907878334137
sS'y'
F469.03651243799789
sS'x'
F521.28361762096472
sg8
g9
sasg8
g10
sg11
S'img_05811.jpg'
p665
sa(dp666
g3
(lp667
(dp668
g6
F100.93190773982235
sg7
F451.22499930744095
sS'y'
F645.9642095348629
sS'x'
F733.83434097894349
sg8
g9
sasg8
g10
sg11
S'img_05804.jpg'
p669
sa(dp670
g3
(lp671
(dp672
g6
F86.682697235376821
sg7
F226.79993386242433
sS'y'
F83.120394609265446
sS'x'
F378.79151257650966
sg8
g9
sasg8
g10
sg11
S'img_05803.jpg'
p673
sa(dp674
g3
(lp675
(dp676
g6
F138.92980241834368
sg7
F403.72763095928929
sS'y'
F610.34118327374915
sS'x'
F788.45631457931802
sg8
g9
sasg8
g10
sg11
S'img_05801.jpg'
p677
sa(dp678
g3
(lp679
(dp680
g6
F148.42927608797396
sg7
F131.80519716612093
sS'y'
F398.97789412447418
sS'x'
F736.20920939635107
sg8
g9
sasg8
g10
sg11
S'img_05759.jpg'
p681
sa(dp682
g3
(lp683
(dp684
g6
F141.30467083575127
sg7
F314.67006530650485
sS'y'
F280.23447325409495
sS'x'
F822.89190663172792
sg8
g9
sa(dp685
g6
F243.42401278427738
sg7
F242.23657857557362
sS'y'
F216.11302598409017
sS'x'
F180.48999972297639
sg8
g9
sasg8
g10
sg11
S'img_05745.jpg'
p686
sa(dp687
g3
(lp688
(dp689
g6
F149.61671029667781
sg7
F147.2418418792702
sS'y'
F61.746578852597189
sS'x'
F227.98736807112809
sg8
g9
sasg8
g10
sg11
S'img_05727.jpg'
p690
sa(dp691
g3
(lp692
sg8
g10
sg11
S'img_05690.jpg'
p693
sa(dp694
g3
(lp695
(dp696
g6
F90.244999861488168
sg7
F159.11618396630809
sS'y'
F431.03861775947655
sS'x'
F419.16427567243863
sg8
g9
sasg8
g10
sg11
S'img_05684.jpg'
p697
sa(dp698
g3
(lp699
(dp700
g6
F116.36855245297164
sg7
F85.495263026673001
sS'y'
F295.67111796724424
sS'x'
F813.39243296209759
sg8
g9
sa(dp701
g6
F155.55388134019682
sg7
F68.871184104819918
sS'y'
F357.41769681984141
sS'x'
F934.51072224988445
sg8
g9
sa(dp702
g6
F122.30572349649054
sg7
F98.557039322414653
sS'y'
F401.35276254188176
sS'x'
F635.27730165652883
sg8
g9
sasg8
g10
sg11
S'img_05675.jpg'
p703
sa(dp704
g3
(lp705
(dp706
g6
F147.24184187927023
sg7
F134.18006558352849
sS'y'
F61.746578852597189
sS'x'
F230.36223648853567
sg8
g9
sasg8
g10
sg11
S'img_05648.jpg'
p707
sa(dp708
g3
(lp709
(dp710
g6
F160.30361817501193
sg7
F204.23868389705223
sS'y'
F66.496315687412363
sS'x'
F496.34749923818509
sg8
g9
sasg8
g10
sg11
S'img_05637.jpg'
p711
sa(dp712
g3
(lp713
(dp714
g6
F97.369605113710946
sg7
F296.85855217594803
sS'y'
F241.0491443668698
sS'x'
F327.73184160224662
sg8
g9
sasg8
g10
sg11
S'img_05604.jpg'
p715
sa(dp716
g3
(lp717
(dp718
g6
F179.30256551427263
sg7
F194.73921022742189
sS'y'
F223.23763123631292
sS'x'
F315.8574995152087
sg8
g9
sasg8
g10
sg11
S'img_05583.jpg'
p719
sa(dp720
g3
(lp721
(dp722
g6
F220.86276281890537
sg7
F308.73289426298595
sS'y'
F299.23342059335562
sS'x'
F208.98842073186742
sg8
g9
sa(dp723
g6
F134.18006558352849
sg7
F379.97894678521351
sS'y'
F49.872236765559272
sS'x'
F496.34749923818509
sg8
g9
sasg8
g10
sg11
S'img_05575.jpg'
p724
sa(dp725
g3
(lp726
(dp727
g6
F167.42822342723471
sg7
F97.369605113710918
sS'y'
F235.11197332335084
sS'x'
F263.61039433224187
sg8
g9
sasg8
g10
sg11
S'img_05566.jpg'
p728
sa(dp729
g3
(lp730
(dp731
g6
F103.3067761572299
sg7
F64.121447270004751
sS'y'
F249.36118382779634
sS'x'
F781.33170932709527
sg8
g9
sasg8
g10
sg11
S'img_05554.jpg'
p732
sa(dp733
g3
(lp734
(dp735
g6
F214.92559177538635
sg7
F147.24184187927017
sS'y'
F672.08776212634632
sS'x'
F1091.2520377987851
sg8
g9
sasg8
g10
sg11
S'img_05553.jpg'
p736
sa(dp737
g3
(lp738
(dp739
g6
F229.17480227983188
sg7
F321.79467055872766
sS'y'
F85.49526302667303
sS'x'
F345.54335473280349
sg8
g9
sasg8
g10
sg11
S'img_05550.jpg'
p740
sa(dp741
g3
(lp742
(dp743
g6
F153.17901292278921
sg7
F403.72763095928929
sS'y'
F232.73710490594326
sS'x'
F385.91611782873247
sg8
g9
sasg8
g10
sg11
S'img_05533.jpg'
p744
sa(dp745
g3
(lp746
(dp747
g6
F141.30467083575127
sg7
F409.66480200280824
sS'y'
F78.370657774450279
sS'x'
F479.72342031633201
sg8
g9
sa(dp748
g6
F161.49105238371573
sg7
F184.05230234908777
sS'y'
F184.05230234908777
sS'x'
F113.99368403556404
sg8
g628
sasg8
g10
sg11
S'img_05481.jpg'
p749
sa(dp750
g3
(lp751
(dp752
g6
F194.73921022742195
sg7
F113.99368403556412
sS'y'
F414.41453883762347
sS'x'
F575.90559122133914
sg8
g9
sasg8
g10
sg11
S'img_05472.jpg'
p753
sa(dp754
g3
(lp755
(dp756
g6
F148.42927608797402
sg7
F374.04177574169444
sS'y'
F179.3025655142726
sS'x'
F642.40190690875158
sg8
g9
sasg8
g10
sg11
S'img_05443.jpg'
p757
sa(dp758
g3
(lp759
(dp760
g6
F167.42822342723471
sg7
F83.120394609265418
sS'y'
F245.79888120168496
sS'x'
F581.84276226485815
sg8
g9
sasg8
g10
sg11
S'img_05419.jpg'
p761
sa(dp762
g3
(lp763
(dp764
g6
F188.80203918390293
sg7
F389.47842045484379
sS'y'
F344.3559205240997
sS'x'
F630.52756482171367
sg8
g9
sa(dp765
g6
F115.18111824426784
sg7
F305.17059163687463
sS'y'
F98.557039322414752
sS'x'
F236.29940753205463
sg8
g9
sasg8
g10
sg11
S'img_05408.jpg'
p766
sa(dp767
g3
(lp768
(dp769
g6
F157.92874975760435
sg7
F122.3057234964906
sS'y'
F148.42927608797402
sS'x'
F667.33802529153115
sg8
g9
sasg8
g10
sg11
S'img_05396.jpg'
p770
sa(dp771
g3
(lp772
(dp773
g6
F214.92559177538635
sg7
F292.10881534113292
sS'y'
F137.74236820963989
sS'x'
F505.84697290781543
sg8
g9
sa(dp774
g6
F127.05546033130575
sg7
F315.85749951520864
sS'y'
F46.30993413944789
sS'x'
F269.54756537576083
sg8
g9
sasg8
g10
sg11
S'img_05348.jpg'
p775
sa(dp776
g3
(lp777
(dp778
g6
F173.36539447075364
sg7
F369.29203890687927
sS'y'
F167.42822342723468
sS'x'
F385.91611782873247
sg8
g9
sasg8
g10
sg11
S'img_05343.jpg'
p779
sa(dp780
g3
(lp781
(dp782
g6
F172.17796026204985
sg7
F397.79045991577038
sS'y'
F165.0533550098271
sS'x'
F526.03335445577989
sg8
g9
sasg8
g10
sg11
S'img_05342.jpg'
p783
sa(dp784
g3
(lp785
(dp786
g6
F138.92980241834368
sg7
F163.86592080112328
sS'y'
F70.058618313523738
sS'x'
F216.11302598409017
sg8
g9
sasg8
g10
sg11
S'img_05332.jpg'
p787
sa(dp788
g3
(lp789
(dp790
g6
F117.55598666167543
sg7
F257.67322328872285
sS'y'
F326.54440739354283
sS'x'
F236.29940753205463
sg8
g9
sasg8
g10
sg11
S'img_05315.jpg'
p791
sa(dp792
g3
(lp793
(dp794
g6
F161.49105238371573
sg7
F341.98105210669206
sS'y'
F112.80624982686025
sS'x'
F389.47842045484384
sg8
g9
sa(dp795
g6
F162.67848659241952
sg7
F301.6082890107632
sS'y'
F132.99263137482473
sS'x'
F776.5819724922801
sg8
g9
sa(dp796
g6
F134.18006558352852
sg7
F189.98947339260673
sS'y'
F83.120394609265446
sS'x'
F102.11934194852613
sg8
g9
sasg8
g10
sg11
S'img_05309.jpg'
p797
sa(dp798
g3
(lp799
(dp800
g6
F109.24394720074889
sg7
F89.057565652784433
sS'y'
F300.42085480205941
sS'x'
F811.01756454469
sg8
g9
sasg8
g10
sg11
S'img_05303.jpg'
p801
sa(dp802
g3
(lp803
(dp804
g6
F295.67111796724419
sg7
F357.41769681984147
sS'y'
F211.363289149275
sS'x'
F433.41348617688413
sg8
g9
sasg8
g10
sg11
S'img_05297.jpg'
p805
sa(dp806
g3
(lp807
(dp808
g6
F125.86802612260198
sg7
F109.24394720074883
sS'y'
F330.1067100196542
sS'x'
F711.2730910135715
sg8
g9
sasg8
g10
sg11
S'img_05270.jpg'
p809
sa(dp810
g3
(lp811
(dp812
g6
F70.058618313523709
sg7
F128.2428945400095
sS'y'
F268.36013116705703
sS'x'
F713.64795943097909
sg8
g9
sa(dp813
g6
F159.1161839663082
sg7
F56.996842017782001
sS'y'
F488.03545977725855
sS'x'
F854.95263026673035
sg8
g9
sasg8
g10
sg11
S'img_05247.jpg'
p814
sa(dp815
g3
(lp816
(dp817
g6
F207.8009865231636
sg7
F288.54651271502155
sS'y'
F146.05440767056643
sS'x'
F360.97999944595279
sg8
g9
sasg8
g10
sg11
S'img_05237.jpg'
p818
sa(dp819
g3
(lp820
(dp821
g6
F74.808355148338933
sg7
F104.49421036593367
sS'y'
F590.15480172578464
sS'x'
F517.7213149948534
sg8
g9
sasg8
g10
sg11
S'img_05225.jpg'
p822
sa(dp823
g3
(lp824
(dp825
g6
F204.23868389705223
sg7
F419.16427567243863
sS'y'
F275.48473641927978
sS'x'
F535.53282812541022
sg8
g9
sa(dp826
g6
F217.30046019279399
sg7
F308.73289426298595
sS'y'
F185.23973655779156
sS'x'
F774.20710407487252
sg8
g9
sa(dp827
g6
F155.55388134019677
sg7
F324.16953897613519
sS'y'
F70.058618313523738
sS'x'
F670.90032791764258
sg8
g9
sa(dp828
g6
F166.24078921853092
sg7
F251.73605224520395
sS'y'
F91.432434070191988
sS'x'
F545.03230179504055
sg8
g9
sa(dp829
g6
F84.307828817969238
sg7
F298.04598638465183
sS'y'
F237.48684174075842
sS'x'
F498.72236765559268
sg8
g9
sa(dp830
g6
F125.86802612260198
sg7
F142.49210504445512
sS'y'
F317.04493372391249
sS'x'
F485.66059135985097
sg8
g9
sa(dp831
g6
F116.36855245297161
sg7
F307.54546005428216
sS'y'
F194.73921022742192
sS'x'
F181.67743393168018
sg8
g9
sa(dp832
g6
F97.369605113710946
sg7
F193.55177601871813
sS'y'
F128.24289454000956
sS'x'
F79.558091983154071
sg8
g9
sasg8
g10
sg11
S'img_05215.jpg'
p833
sa(dp834
g3
(lp835
(dp836
g6
F103.3067761572299
sg7
F333.66901264576563
sS'y'
F85.49526302667303
sS'x'
F280.23447325409495
sg8
g9
sa(dp837
g6
F129.43032874871335
sg7
F333.66901264576558
sS'y'
F314.67006530650491
sS'x'
F163.86592080112331
sg8
g9
sa(dp838
g6
F113.993684035564
sg7
F192.36434181001425
sS'y'
F394.22815728965901
sS'x'
F786.08144616191043
sg8
g9
sa(dp839
g6
F115.18111824426782
sg7
F112.80624982686027
sS'y'
F128.24289454000956
sS'x'
F84.307828817969238
sg8
g9
sasg8
g10
sg11
S'img_05179.jpg'
p840
sa(dp841
g3
(lp842
(dp843
g6
F138.92980241834368
sg7
F382.35381520262115
sS'y'
F94.994736696303363
sS'x'
F564.03124913430122
sg8
g9
sa(dp844
g6
F104.49421036593372
sg7
F231.54967069723943
sS'y'
F87.870131444080613
sS'x'
F136.5549340009361
sg8
g9
sasg8
g10
sg11
S'img_05161.jpg'
p845
sa(dp846
g3
(lp847
(dp848
g6
F163.86592080112331
sg7
F162.67848659241952
sS'y'
F332.48157843706178
sS'x'
F640.027038491344
sg8
g9
sasg8
g10
sg11
S'img_05153.jpg'
p849
sa(dp850
g3
(lp851
(dp852
g6
F179.30256551427266
sg7
F116.36855245297158
sS'y'
F446.47526247262584
sS'x'
F478.53598610762822
sg8
g9
sasg8
g10
sg11
S'img_05148.jpg'
p853
sa(dp854
g3
(lp855
(dp856
g6
F184.05230234908777
sg7
F326.54440739354277
sS'y'
F282.60934167150253
sS'x'
F844.26572238839617
sg8
g9
sa(dp857
g6
F125.86802612260198
sg7
F295.6711179672443
sS'y'
F420.35170988114243
sS'x'
F849.01545922321134
sg8
g9
sa(dp858
g6
F150.8041445053816
sg7
F276.67217062798363
sS'y'
F56.996842017782022
sS'x'
F492.78519661207372
sg8
g9
sasg8
g10
sg11
S'img_05145.jpg'
p859
sa(dp860
g3
(lp861
(dp862
g6
F105.68164457463749
sg7
F249.36118382779631
sS'y'
F231.54967069723946
sS'x'
F321.79467055872766
sg8
g9
sasg8
g10
sg11
S'img_05131.jpg'
p863
sa(dp864
g3
(lp865
(dp866
g6
F121.11828928778681
sg7
F333.66901264576575
sS'y'
F347.91822315021108
sS'x'
F748.08355148338899
sg8
g9
sasg8
g10
sg11
S'img_05121.jpg'
p867
sa(dp868
g3
(lp869
(dp870
g6
F219.67532861020155
sg7
F97.369605113710946
sS'y'
F84.307828817969238
sS'x'
F222.05019702760913
sg8
g9
sasg8
g10
sg11
S'img_05101.jpg'
p871
sa(dp872
g3
(lp873
(dp874
g6
F179.3025655142726
sg7
F362.16743365465652
sS'y'
F163.86592080112331
sS'x'
F388.29098624614005
sg8
g9
sasg8
g10
sg11
S'img_05094.jpg'
p875
sa(dp876
g3
(lp877
(dp878
g6
F78.370657774450308
sg7
F150.8041445053816
sS'y'
F352.66795998502624
sS'x'
F763.52019619653834
sg8
g9
sasg8
g10
sg11
S'img_05083.jpg'
p879
sa(dp880
g3
(lp881
(dp882
g6
F150.8041445053816
sg7
F148.42927608797399
sS'y'
F56.996842017782022
sS'x'
F217.30046019279396
sg8
g9
sasg8
g10
sg11
S'img_05077.jpg'
p883
sa(dp884
g3
(lp885
(dp886
g6
F92.619868278895751
sg7
F435.78835459429183
sS'y'
F653.08881478708565
sS'x'
F740.95894623116624
sg8
g9
sasg8
g10
sg11
S'img_05049.jpg'
p887
sa(dp888
g3
(lp889
(dp890
g6
F167.42822342723471
sg7
F200.67638127094085
sS'y'
F220.86276281890534
sS'x'
F303.98315742817078
sg8
g9
sasg8
g10
sg11
S'img_05039.jpg'
p891
sa(dp892
g3
(lp893
(dp894
g6
F75.995789357042668
sg7
F85.495263026673001
sS'y'
F588.9673675170809
sS'x'
F521.28361762096472
sg8
g9
sasg8
g10
sg11
S'img_05032.jpg'
p895
sa(dp896
g3
(lp897
(dp898
g6
F248.17374961909252
sg7
F236.2994075320546
sS'y'
F292.10881534113287
sS'x'
F299.23342059335562
sg8
g9
sasg8
g10
sg11
S'img_05020.jpg'
p899
sa(dp900
g3
(lp901
(dp902
g6
F72.433486730931293
sg7
F135.36749979223225
sS'y'
F271.92243379316841
sS'x'
F708.89822259616392
sg8
g9
sa(dp903
g6
F115.18111824426791
sg7
F73.620920939635198
sS'y'
F496.34749923818509
sS'x'
F839.515985553581
sg8
g9
sa(dp904
g6
F45.122499930744112
sg7
F52.247105182966834
sS'y'
F187.61460497519914
sS'x'
F718.39769626579425
sg8
g9
sasg8
g10
sg11
S'img_04997.jpg'
p905
sa(dp906
g3
(lp907
(dp908
g6
F170.99052605334606
sg7
F94.994736696303335
sS'y'
F166.24078921853089
sS'x'
F657.83855162190082
sg8
g9
sasg8
g10
sg11
S'img_04983.jpg'
p909
sa(dp910
g3
(lp911
(dp912
g6
F204.23868389705223
sg7
F142.49210504445512
sS'y'
F463.09934139447893
sS'x'
F523.6584860383723
sg8
g9
sasg8
g10
sg11
S'img_04979.jpg'
p913
sa(dp914
g3
(lp915
(dp916
g6
F113.99368403556403
sg7
F371.66690732428697
sS'y'
F128.24289454000956
sS'x'
F397.79045991577038
sg8
g9
sa(dp917
g6
F121.11828928778678
sg7
F410.85223621151215
sS'y'
F52.247105182966855
sS'x'
F580.6553280561543
sg8
g9
sa(dp918
g6
F125.86802612260195
sg7
F251.73605224520406
sS'y'
F193.55177601871813
sS'x'
F906.01230124099334
sg8
g9
sa(dp919
g6
F117.55598666167543
sg7
F308.73289426298595
sS'y'
F280.23447325409495
sS'x'
F205.42611810575605
sg8
g9
sasg8
g10
sg11
S'img_04969.jpg'
p920
sa(dp921
g3
(lp922
(dp923
g6
F124.68059191389818
sg7
F383.54124941132477
sS'y'
F154.36644713149298
sS'x'
F527.22078866448373
sg8
g9
sasg8
g10
sg11
S'img_04955.jpg'
p924
sa(dp925
g3
(lp926
(dp927
g6
F138.92980241834368
sg7
F318.23236793261628
sS'y'
F52.247105182966855
sS'x'
F275.48473641927978
sg8
g9
sa(dp928
g6
F135.36749979223228
sg7
F239.86171015816592
sS'y'
F218.48789440149775
sS'x'
F954.69710379784885
sg8
g9
sasg8
g10
sg11
S'img_04954.jpg'
p929
sa(dp930
g3
(lp931
(dp932
g6
F85.495263026673058
sg7
F166.24078921853089
sS'y'
F347.91822315021108
sS'x'
F173.36539447075364
sg8
g9
sasg8
g10
sg11
S'img_04951.jpg'
p933
sa(dp934
g3
(lp935
(dp936
g6
F142.49210504445503
sg7
F188.80203918390293
sS'y'
F235.11197332335084
sS'x'
F298.04598638465183
sg8
g9
sasg8
g10
sg11
S'img_04904.jpg'
p937
sa(dp938
g3
(lp939
(dp940
g6
F159.11618396630814
sg7
F116.36855245297158
sS'y'
F347.91822315021108
sS'x'
F607.96631485634157
sg8
g9
sasg8
g10
sg11
S'img_04899.jpg'
p941
sa(dp942
g3
(lp943
(dp944
g6
F159.11618396630811
sg7
F244.61144699298114
sS'y'
F208.98842073186742
sS'x'
F324.16953897613524
sg8
g9
sasg8
g10
sg11
S'img_04882.jpg'
p945
sa(dp946
g3
(lp947
(dp948
g6
F121.11828928778681
sg7
F286.17164429761385
sS'y'
F330.1067100196542
sS'x'
F239.86171015816601
sg8
g9
sasg8
g10
sg11
S'img_04878.jpg'
p949
sa(dp950
g3
(lp951
(dp952
g6
F124.68059191389818
sg7
F337.23131527187689
sS'y'
F131.80519716612093
sS'x'
F391.85328887225143
sg8
g9
sa(dp953
g6
F176.92769709686502
sg7
F322.98210476743145
sS'y'
F147.24184187927023
sS'x'
F765.89506461394592
sg8
g9
sa(dp954
g6
F154.36644713149298
sg7
F169.80309184464227
sS'y'
F80.745526191857863
sS'x'
F124.68059191389817
sg8
g9
sasg8
g10
sg11
S'img_04875.jpg'
p955
sa(dp956
g3
(lp957
(dp958
g6
F197.11407864482948
sg7
F98.557039322414653
sS'y'
F415.60197304632726
sS'x'
F644.77677532615917
sg8
g9
sa(dp959
g6
F106.86907878334131
sg7
F86.68269723537685
sS'y'
F302.79572321946699
sS'x'
F828.82907767524694
sg8
g9
sasg8
g10
sg11
S'img_04861.jpg'
p960
sa(dp961
g3
(lp962
(dp963
g6
F144.86697346186261
sg7
F176.92769709686502
sS'y'
F206.61355231445984
sS'x'
F295.67111796724424
sg8
g9
sasg8
g10
sg11
S'img_04852.jpg'
p964
sa(dp965
g3
(lp966
sg8
g10
sg11
S'img_04822.jpg'
p967
sa(dp968
g3
(lp969
sg8
g10
sg11
S'img_04808.jpg'
p970
sa(dp971
g3
(lp972
sg8
g10
sg11
S'img_04798.jpg'
p973
sa(dp974
g3
(lp975
sg8
g10
sg11
S'img_04774.jpg'
p976
sa(dp977
g3
(lp978
sg8
g10
sg11
S'img_04771.jpg'
p979
sa(dp980
g3
(lp981
sg8
g10
sg11
S'img_04742.jpg'
p982
sa(dp983
g3
(lp984
sg8
g10
sg11
S'img_04728.jpg'
p985
sa(dp986
g3
(lp987
sg8
g10
sg11
S'img_04721.jpg'
p988
sa(dp989
g3
(lp990
sg8
g10
sg11
S'img_04588.jpg'
p991
sa(dp992
g3
(lp993
sg8
g10
sg11
S'img_04579.jpg'
p994
sa(dp995
g3
(lp996
sg8
g10
sg11
S'img_04572.jpg'
p997
sa(dp998
g3
(lp999
sg8
g10
sg11
S'img_04552.jpg'
p1000
sa(dp1001
g3
(lp1002
sg8
g10
sg11
S'img_04547.jpg'
p1003
sa(dp1004
g3
(lp1005
sg8
g10
sg11
S'img_04543.jpg'
p1006
sa(dp1007
g3
(lp1008
sg8
g10
sg11
S'img_04542.jpg'
p1009
sa(dp1010
g3
(lp1011
sg8
g10
sg11
S'img_04517.jpg'
p1012
sa(dp1013
g3
(lp1014
sg8
g10
sg11
S'img_04441.jpg'
p1015
sa(dp1016
g3
(lp1017
sg8
g10
sg11
S'img_04412.jpg'
p1018
sa(dp1019
g3
(lp1020
sg8
g10
sg11
S'img_04400.jpg'
p1021
sa(dp1022
g3
(lp1023
sg8
g10
sg11
S'img_04377.jpg'
p1024
sa(dp1025
g3
(lp1026
sg8
g10
sg11
S'img_04368.jpg'
p1027
sa(dp1028
g3
(lp1029
sg8
g10
sg11
S'img_04345.jpg'
p1030
sa(dp1031
g3
(lp1032
sg8
g10
sg11
S'img_04336.jpg'
p1033
sa(dp1034
g3
(lp1035
sg8
g10
sg11
S'img_04309.jpg'
p1036
sa(dp1037
g3
(lp1038
sg8
g10
sg11
S'img_04296.jpg'
p1039
sa(dp1040
g3
(lp1041
sg8
g10
sg11
S'img_04259.jpg'
p1042
sa(dp1043
g3
(lp1044
sg8
g10
sg11
S'img_04229.jpg'
p1045
sa(dp1046
g3
(lp1047
sg8
g10
sg11
S'img_04205.jpg'
p1048
sa(dp1049
g3
(lp1050
sg8
g10
sg11
S'img_04196.jpg'
p1051
sa(dp1052
g3
(lp1053
sg8
g10
sg11
S'img_04187.jpg'
p1054
sa(dp1055
g3
(lp1056
sg8
g10
sg11
S'img_04174.jpg'
p1057
sa(dp1058
g3
(lp1059
sg8
g10
sg11
S'img_04124.jpg'
p1060
sa(dp1061
g3
(lp1062
sg8
g10
sg11
S'img_04112.jpg'
p1063
sa(dp1064
g3
(lp1065
sg8
g10
sg11
S'img_04100.jpg'
p1066
sa(dp1067
g3
(lp1068
sg8
g10
sg11
S'img_04078.jpg'
p1069
sa(dp1070
g3
(lp1071
sg8
g10
sg11
S'img_04062.jpg'
p1072
sa(dp1073
g3
(lp1074
sg8
g10
sg11
S'img_04059.jpg'
p1075
sa(dp1076
g3
(lp1077
sg8
g10
sg11
S'img_04025.jpg'
p1078
sa(dp1079
g3
(lp1080
sg8
g10
sg11
S'img_04023.jpg'
p1081
sa(dp1082
g3
(lp1083
sg8
g10
sg11
S'img_04018.jpg'
p1084
sa(dp1085
g3
(lp1086
sg8
g10
sg11
S'img_04014.jpg'
p1087
sa(dp1088
g3
(lp1089
sg8
g10
sg11
S'img_04006.jpg'
p1090
sa(dp1091
g3
(lp1092
sg8
g10
sg11
S'img_04005.jpg'
p1093
sa(dp1094
g3
(lp1095
sg8
g10
sg11
S'img_03991.jpg'
p1096
sa(dp1097
g3
(lp1098
sg8
g10
sg11
S'img_03990.jpg'
p1099
sa(dp1100
g3
(lp1101
sg8
g10
sg11
S'img_03985.jpg'
p1102
sa(dp1103
g3
(lp1104
sg8
g10
sg11
S'img_03984.jpg'
p1105
sa(dp1106
g3
(lp1107
sg8
g10
sg11
S'img_03965.jpg'
p1108
sa(dp1109
g3
(lp1110
sg8
g10
sg11
S'img_03944.jpg'
p1111
sa(dp1112
g3
(lp1113
sg8
g10
sg11
S'img_03904.jpg'
p1114
sa(dp1115
g3
(lp1116
sg8
g10
sg11
S'img_03880.jpg'
p1117
sa(dp1118
g3
(lp1119
sg8
g10
sg11
S'img_03877.jpg'
p1120
sa(dp1121
g3
(lp1122
sg8
g10
sg11
S'img_03862.jpg'
p1123
sa(dp1124
g3
(lp1125
sg8
g10
sg11
S'img_03861.jpg'
p1126
sa(dp1127
g3
(lp1128
sg8
g10
sg11
S'img_03859.jpg'
p1129
sa(dp1130
g3
(lp1131
sg8
g10
sg11
S'img_03858.jpg'
p1132
sa(dp1133
g3
(lp1134
sg8
g10
sg11
S'img_03851.jpg'
p1135
sa(dp1136
g3
(lp1137
sg8
g10
sg11
S'img_03845.jpg'
p1138
sa(dp1139
g3
(lp1140
sg8
g10
sg11
S'img_03827.jpg'
p1141
sa(dp1142
g3
(lp1143
sg8
g10
sg11
S'img_03821.jpg'
p1144
sa(dp1145
g3
(lp1146
sg8
g10
sg11
S'img_03798.jpg'
p1147
sa(dp1148
g3
(lp1149
sg8
g10
sg11
S'img_03780.jpg'
p1150
sa(dp1151
g3
(lp1152
sg8
g10
sg11
S'img_03775.jpg'
p1153
sa(dp1154
g3
(lp1155
sg8
g10
sg11
S'img_03746.jpg'
p1156
sa(dp1157
g3
(lp1158
sg8
g10
sg11
S'img_03736.jpg'
p1159
sa(dp1160
g3
(lp1161
sg8
g10
sg11
S'img_03709.jpg'
p1162
sa(dp1163
g3
(lp1164
sg8
g10
sg11
S'img_03666.jpg'
p1165
sa(dp1166
g3
(lp1167
sg8
g10
sg11
S'img_03664.jpg'
p1168
sa(dp1169
g3
(lp1170
sg8
g10
sg11
S'img_03662.jpg'
p1171
sa(dp1172
g3
(lp1173
sg8
g10
sg11
S'img_03656.jpg'
p1174
sa(dp1175
g3
(lp1176
sg8
g10
sg11
S'img_03645.jpg'
p1177
sa(dp1178
g3
(lp1179
sg8
g10
sg11
S'img_03606.jpg'
p1180
sa(dp1181
g3
(lp1182
sg8
g10
sg11
S'img_03593.jpg'
p1183
sa(dp1184
g3
(lp1185
sg8
g10
sg11
S'img_03589.jpg'
p1186
sa(dp1187
g3
(lp1188
sg8
g10
sg11
S'img_03570.jpg'
p1189
sa(dp1190
g3
(lp1191
sg8
g10
sg11
S'img_03569.jpg'
p1192
sa(dp1193
g3
(lp1194
sg8
g10
sg11
S'img_03552.jpg'
p1195
sa(dp1196
g3
(lp1197
sg8
g10
sg11
S'img_03538.jpg'
p1198
sa(dp1199
g3
(lp1200
sg8
g10
sg11
S'img_03516.jpg'
p1201
sa(dp1202
g3
(lp1203
sg8
g10
sg11
S'img_03515.jpg'
p1204
sa(dp1205
g3
(lp1206
sg8
g10
sg11
S'img_03512.jpg'
p1207
sa(dp1208
g3
(lp1209
sg8
g10
sg11
S'img_03501.jpg'
p1210
sa(dp1211
g3
(lp1212
sg8
g10
sg11
S'img_03499.jpg'
p1213
sa(dp1214
g3
(lp1215
sg8
g10
sg11
S'img_03491.jpg'
p1216
sa(dp1217
g3
(lp1218
sg8
g10
sg11
S'img_03486.jpg'
p1219
sa(dp1220
g3
(lp1221
sg8
g10
sg11
S'img_03482.jpg'
p1222
sa(dp1223
g3
(lp1224
sg8
g10
sg11
S'img_03463.jpg'
p1225
sa(dp1226
g3
(lp1227
sg8
g10
sg11
S'img_03424.jpg'
p1228
sa(dp1229
g3
(lp1230
sg8
g10
sg11
S'img_03411.jpg'
p1231
sa(dp1232
g3
(lp1233
sg8
g10
sg11
S'img_03401.jpg'
p1234
sa(dp1235
g3
(lp1236
sg8
g10
sg11
S'img_03376.jpg'
p1237
sa(dp1238
g3
(lp1239
sg8
g10
sg11
S'img_03374.jpg'
p1240
sa(dp1241
g3
(lp1242
sg8
g10
sg11
S'img_03369.jpg'
p1243
sa(dp1244
g3
(lp1245
sg8
g10
sg11
S'img_03360.jpg'
p1246
sa(dp1247
g3
(lp1248
sg8
g10
sg11
S'img_03352.jpg'
p1249
sa(dp1250
g3
(lp1251
sg8
g10
sg11
S'img_03350.jpg'
p1252
sa(dp1253
g3
(lp1254
sg8
g10
sg11
S'img_03348.jpg'
p1255
sa(dp1256
g3
(lp1257
sg8
g10
sg11
S'img_03335.jpg'
p1258
sa(dp1259
g3
(lp1260
sg8
g10
sg11
S'img_03323.jpg'
p1261
sa(dp1262
g3
(lp1263
sg8
g10
sg11
S'img_03320.jpg'
p1264
sa(dp1265
g3
(lp1266
sg8
g10
sg11
S'img_03311.jpg'
p1267
sa(dp1268
g3
(lp1269
sg8
g10
sg11
S'img_03282.jpg'
p1270
sa(dp1271
g3
(lp1272
sg8
g10
sg11
S'img_03264.jpg'
p1273
sa(dp1274
g3
(lp1275
sg8
g10
sg11
S'img_03250.jpg'
p1276
sa(dp1277
g3
(lp1278
sg8
g10
sg11
S'img_03237.jpg'
p1279
sa(dp1280
g3
(lp1281
sg8
g10
sg11
S'img_03226.jpg'
p1282
sa(dp1283
g3
(lp1284
sg8
g10
sg11
S'img_03224.jpg'
p1285
sa(dp1286
g3
(lp1287
sg8
g10
sg11
S'img_03215.jpg'
p1288
sa(dp1289
g3
(lp1290
sg8
g10
sg11
S'img_03202.jpg'
p1291
sa(dp1292
g3
(lp1293
sg8
g10
sg11
S'img_03188.jpg'
p1294
sa(dp1295
g3
(lp1296
sg8
g10
sg11
S'img_03176.jpg'
p1297
sa(dp1298
g3
(lp1299
sg8
g10
sg11
S'img_03143.jpg'
p1300
sa(dp1301
g3
(lp1302
sg8
g10
sg11
S'img_03123.jpg'
p1303
sa(dp1304
g3
(lp1305
sg8
g10
sg11
S'img_03107.jpg'
p1306
sa(dp1307
g3
(lp1308
sg8
g10
sg11
S'img_03099.jpg'
p1309
sa(dp1310
g3
(lp1311
sg8
g10
sg11
S'img_03089.jpg'
p1312
sa(dp1313
g3
(lp1314
sg8
g10
sg11
S'img_03041.jpg'
p1315
sa(dp1316
g3
(lp1317
sg8
g10
sg11
S'img_03038.jpg'
p1318
sa(dp1319
g3
(lp1320
sg8
g10
sg11
S'img_03017.jpg'
p1321
sa(dp1322
g3
(lp1323
sg8
g10
sg11
S'img_03005.jpg'
p1324
sa(dp1325
g3
(lp1326
sg8
g10
sg11
S'img_03003.jpg'
p1327
sa(dp1328
g3
(lp1329
sg8
g10
sg11
S'img_02950.jpg'
p1330
sa(dp1331
g3
(lp1332
sg8
g10
sg11
S'img_02948.jpg'
p1333
sa(dp1334
g3
(lp1335
sg8
g10
sg11
S'img_02946.jpg'
p1336
sa(dp1337
g3
(lp1338
sg8
g10
sg11
S'img_02945.jpg'
p1339
sa(dp1340
g3
(lp1341
sg8
g10
sg11
S'img_02940.jpg'
p1342
sa(dp1343
g3
(lp1344
sg8
g10
sg11
S'img_02925.jpg'
p1345
sa(dp1346
g3
(lp1347
sg8
g10
sg11
S'img_02885.jpg'
p1348
sa(dp1349
g3
(lp1350
sg8
g10
sg11
S'img_02868.jpg'
p1351
sa(dp1352
g3
(lp1353
sg8
g10
sg11
S'img_02859.jpg'
p1354
sa(dp1355
g3
(lp1356
sg8
g10
sg11
S'img_02856.jpg'
p1357
sa(dp1358
g3
(lp1359
sg8
g10
sg11
S'img_02828.jpg'
p1360
sa(dp1361
g3
(lp1362
sg8
g10
sg11
S'img_02823.jpg'
p1363
sa(dp1364
g3
(lp1365
sg8
g10
sg11
S'img_02794.jpg'
p1366
sa(dp1367
g3
(lp1368
sg8
g10
sg11
S'img_02793.jpg'
p1369
sa(dp1370
g3
(lp1371
sg8
g10
sg11
S'img_02777.jpg'
p1372
sa(dp1373
g3
(lp1374
sg8
g10
sg11
S'img_02774.jpg'
p1375
sa(dp1376
g3
(lp1377
sg8
g10
sg11
S'img_02762.jpg'
p1378
sa(dp1379
g3
(lp1380
sg8
g10
sg11
S'img_02729.jpg'
p1381
sa(dp1382
g3
(lp1383
sg8
g10
sg11
S'img_02689.jpg'
p1384
sa(dp1385
g3
(lp1386
sg8
g10
sg11
S'img_02662.jpg'
p1387
sa(dp1388
g3
(lp1389
sg8
g10
sg11
S'img_02635.jpg'
p1390
sa(dp1391
g3
(lp1392
sg8
g10
sg11
S'img_02604.jpg'
p1393
sa(dp1394
g3
(lp1395
sg8
g10
sg11
S'img_02591.jpg'
p1396
sa(dp1397
g3
(lp1398
sg8
g10
sg11
S'img_02586.jpg'
p1399
sa(dp1400
g3
(lp1401
sg8
g10
sg11
S'img_02545.jpg'
p1402
sa(dp1403
g3
(lp1404
sg8
g10
sg11
S'img_02542.jpg'
p1405
sa(dp1406
g3
(lp1407
sg8
g10
sg11
S'img_02519.jpg'
p1408
sa(dp1409
g3
(lp1410
sg8
g10
sg11
S'img_02513.jpg'
p1411
sa(dp1412
g3
(lp1413
sg8
g10
sg11
S'img_02488.jpg'
p1414
sa(dp1415
g3
(lp1416
sg8
g10
sg11
S'img_02484.jpg'
p1417
sa(dp1418
g3
(lp1419
sg8
g10
sg11
S'img_02481.jpg'
p1420
sa(dp1421
g3
(lp1422
sg8
g10
sg11
S'img_02477.jpg'
p1423
sa(dp1424
g3
(lp1425
sg8
g10
sg11
S'img_02468.jpg'
p1426
sa(dp1427
g3
(lp1428
sg8
g10
sg11
S'img_02447.jpg'
p1429
sa(dp1430
g3
(lp1431
sg8
g10
sg11
S'img_02436.jpg'
p1432
sa(dp1433
g3
(lp1434
sg8
g10
sg11
S'img_02425.jpg'
p1435
sa(dp1436
g3
(lp1437
sg8
g10
sg11
S'img_02405.jpg'
p1438
sa(dp1439
g3
(lp1440
sg8
g10
sg11
S'img_02399.jpg'
p1441
sa(dp1442
g3
(lp1443
sg8
g10
sg11
S'img_02393.jpg'
p1444
sa(dp1445
g3
(lp1446
sg8
g10
sg11
S'img_02392.jpg'
p1447
sa(dp1448
g3
(lp1449
sg8
g10
sg11
S'img_02376.jpg'
p1450
sa(dp1451
g3
(lp1452
sg8
g10
sg11
S'img_02373.jpg'
p1453
sa(dp1454
g3
(lp1455
sg8
g10
sg11
S'img_02359.jpg'
p1456
sa(dp1457
g3
(lp1458
sg8
g10
sg11
S'img_02342.jpg'
p1459
sa(dp1460
g3
(lp1461
sg8
g10
sg11
S'img_02340.jpg'
p1462
sa(dp1463
g3
(lp1464
sg8
g10
sg11
S'img_02338.jpg'
p1465
sa(dp1466
g3
(lp1467
sg8
g10
sg11
S'img_02328.jpg'
p1468
sa(dp1469
g3
(lp1470
sg8
g10
sg11
S'img_02324.jpg'
p1471
sa(dp1472
g3
(lp1473
sg8
g10
sg11
S'img_02289.jpg'
p1474
sa(dp1475
g3
(lp1476
sg8
g10
sg11
S'img_02229.jpg'
p1477
sa(dp1478
g3
(lp1479
sg8
g10
sg11
S'img_02205.jpg'
p1480
sa(dp1481
g3
(lp1482
sg8
g10
sg11
S'img_02201.jpg'
p1483
sa(dp1484
g3
(lp1485
sg8
g10
sg11
S'img_02197.jpg'
p1486
sa(dp1487
g3
(lp1488
sg8
g10
sg11
S'img_02185.jpg'
p1489
sa(dp1490
g3
(lp1491
sg8
g10
sg11
S'img_02184.jpg'
p1492
sa(dp1493
g3
(lp1494
sg8
g10
sg11
S'img_02182.jpg'
p1495
sa(dp1496
g3
(lp1497
sg8
g10
sg11
S'img_02178.jpg'
p1498
sa(dp1499
g3
(lp1500
sg8
g10
sg11
S'img_02171.jpg'
p1501
sa(dp1502
g3
(lp1503
sg8
g10
sg11
S'img_02140.jpg'
p1504
sa(dp1505
g3
(lp1506
sg8
g10
sg11
S'img_02112.jpg'
p1507
sa(dp1508
g3
(lp1509
sg8
g10
sg11
S'img_02109.jpg'
p1510
sa(dp1511
g3
(lp1512
sg8
g10
sg11
S'img_02068.jpg'
p1513
sa(dp1514
g3
(lp1515
sg8
g10
sg11
S'img_02047.jpg'
p1516
sa(dp1517
g3
(lp1518
sg8
g10
sg11
S'img_02034.jpg'
p1519
sa(dp1520
g3
(lp1521
sg8
g10
sg11
S'img_02030.jpg'
p1522
sa(dp1523
g3
(lp1524
sg8
g10
sg11
S'img_02019.jpg'
p1525
sa(dp1526
g3
(lp1527
sg8
g10
sg11
S'img_02012.jpg'
p1528
sa(dp1529
g3
(lp1530
sg8
g10
sg11
S'img_01958.jpg'
p1531
sa(dp1532
g3
(lp1533
sg8
g10
sg11
S'img_01948.jpg'
p1534
sa(dp1535
g3
(lp1536
sg8
g10
sg11
S'img_01936.jpg'
p1537
sa(dp1538
g3
(lp1539
sg8
g10
sg11
S'img_01911.jpg'
p1540
sa(dp1541
g3
(lp1542
sg8
g10
sg11
S'img_01902.jpg'
p1543
sa(dp1544
g3
(lp1545
sg8
g10
sg11
S'img_01897.jpg'
p1546
sa(dp1547
g3
(lp1548
sg8
g10
sg11
S'img_01890.jpg'
p1549
sa(dp1550
g3
(lp1551
sg8
g10
sg11
S'img_01884.jpg'
p1552
sa(dp1553
g3
(lp1554
sg8
g10
sg11
S'img_01865.jpg'
p1555
sa(dp1556
g3
(lp1557
sg8
g10
sg11
S'img_01846.jpg'
p1558
sa(dp1559
g3
(lp1560
sg8
g10
sg11
S'img_01838.jpg'
p1561
sa(dp1562
g3
(lp1563
sg8
g10
sg11
S'img_01822.jpg'
p1564
sa(dp1565
g3
(lp1566
sg8
g10
sg11
S'img_01805.jpg'
p1567
sa(dp1568
g3
(lp1569
sg8
g10
sg11
S'img_01796.jpg'
p1570
sa(dp1571
g3
(lp1572
sg8
g10
sg11
S'img_01788.jpg'
p1573
sa(dp1574
g3
(lp1575
sg8
g10
sg11
S'img_01786.jpg'
p1576
sa(dp1577
g3
(lp1578
sg8
g10
sg11
S'img_01768.jpg'
p1579
sa(dp1580
g3
(lp1581
sg8
g10
sg11
S'img_01756.jpg'
p1582
sa(dp1583
g3
(lp1584
sg8
g10
sg11
S'img_01744.jpg'
p1585
sa(dp1586
g3
(lp1587
sg8
g10
sg11
S'img_01729.jpg'
p1588
sa(dp1589
g3
(lp1590
sg8
g10
sg11
S'img_01713.jpg'
p1591
sa(dp1592
g3
(lp1593
sg8
g10
sg11
S'img_01699.jpg'
p1594
sa(dp1595
g3
(lp1596
sg8
g10
sg11
S'img_01686.jpg'
p1597
sa(dp1598
g3
(lp1599
sg8
g10
sg11
S'img_01660.jpg'
p1600
sa(dp1601
g3
(lp1602
sg8
g10
sg11
S'img_01655.jpg'
p1603
sa(dp1604
g3
(lp1605
sg8
g10
sg11
S'img_01590.jpg'
p1606
sa(dp1607
g3
(lp1608
sg8
g10
sg11
S'img_01574.jpg'
p1609
sa(dp1610
g3
(lp1611
sg8
g10
sg11
S'img_01556.jpg'
p1612
sa(dp1613
g3
(lp1614
sg8
g10
sg11
S'img_01529.jpg'
p1615
sa(dp1616
g3
(lp1617
sg8
g10
sg11
S'img_01454.jpg'
p1618
sa(dp1619
g3
(lp1620
sg8
g10
sg11
S'img_01434.jpg'
p1621
sa(dp1622
g3
(lp1623
sg8
g10
sg11
S'img_01416.jpg'
p1624
sa(dp1625
g3
(lp1626
sg8
g10
sg11
S'img_01374.jpg'
p1627
sa(dp1628
g3
(lp1629
sg8
g10
sg11
S'img_01367.jpg'
p1630
sa(dp1631
g3
(lp1632
sg8
g10
sg11
S'img_01363.jpg'
p1633
sa(dp1634
g3
(lp1635
sg8
g10
sg11
S'img_01361.jpg'
p1636
sa(dp1637
g3
(lp1638
sg8
g10
sg11
S'img_01355.jpg'
p1639
sa(dp1640
g3
(lp1641
sg8
g10
sg11
S'img_01336.jpg'
p1642
sa(dp1643
g3
(lp1644
sg8
g10
sg11
S'img_01333.jpg'
p1645
sa(dp1646
g3
(lp1647
sg8
g10
sg11
S'img_01314.jpg'
p1648
sa(dp1649
g3
(lp1650
sg8
g10
sg11
S'img_01306.jpg'
p1651
sa(dp1652
g3
(lp1653
sg8
g10
sg11
S'img_01287.jpg'
p1654
sa(dp1655
g3
(lp1656
sg8
g10
sg11
S'img_01268.jpg'
p1657
sa(dp1658
g3
(lp1659
sg8
g10
sg11
S'img_01265.jpg'
p1660
sa(dp1661
g3
(lp1662
sg8
g10
sg11
S'img_01247.jpg'
p1663
sa(dp1664
g3
(lp1665
sg8
g10
sg11
S'img_01240.jpg'
p1666
sa(dp1667
g3
(lp1668
sg8
g10
sg11
S'img_01238.jpg'
p1669
sa(dp1670
g3
(lp1671
sg8
g10
sg11
S'img_01225.jpg'
p1672
sa(dp1673
g3
(lp1674
sg8
g10
sg11
S'img_01163.jpg'
p1675
sa(dp1676
g3
(lp1677
sg8
g10
sg11
S'img_01160.jpg'
p1678
sa(dp1679
g3
(lp1680
sg8
g10
sg11
S'img_01144.jpg'
p1681
sa(dp1682
g3
(lp1683
sg8
g10
sg11
S'img_01141.jpg'
p1684
sa(dp1685
g3
(lp1686
sg8
g10
sg11
S'img_01130.jpg'
p1687
sa(dp1688
g3
(lp1689
sg8
g10
sg11
S'img_01129.jpg'
p1690
sa(dp1691
g3
(lp1692
sg8
g10
sg11
S'img_01110.jpg'
p1693
sa(dp1694
g3
(lp1695
sg8
g10
sg11
S'img_01083.jpg'
p1696
sa(dp1697
g3
(lp1698
sg8
g10
sg11
S'img_01079.jpg'
p1699
sa(dp1700
g3
(lp1701
sg8
g10
sg11
S'img_01070.jpg'
p1702
sa(dp1703
g3
(lp1704
sg8
g10
sg11
S'img_01063.jpg'
p1705
sa(dp1706
g3
(lp1707
sg8
g10
sg11
S'img_01032.jpg'
p1708
sa(dp1709
g3
(lp1710
sg8
g10
sg11
S'img_01011.jpg'
p1711
sa(dp1712
g3
(lp1713
sg8
g10
sg11
S'img_01006.jpg'
p1714
sa(dp1715
g3
(lp1716
sg8
g10
sg11
S'img_00996.jpg'
p1717
sa(dp1718
g3
(lp1719
sg8
g10
sg11
S'img_00984.jpg'
p1720
sa(dp1721
g3
(lp1722
sg8
g10
sg11
S'img_00975.jpg'
p1723
sa(dp1724
g3
(lp1725
sg8
g10
sg11
S'img_00970.jpg'
p1726
sa(dp1727
g3
(lp1728
sg8
g10
sg11
S'img_00957.jpg'
p1729
sa(dp1730
g3
(lp1731
sg8
g10
sg11
S'img_00928.jpg'
p1732
sa(dp1733
g3
(lp1734
sg8
g10
sg11
S'img_00899.jpg'
p1735
sa(dp1736
g3
(lp1737
sg8
g10
sg11
S'img_00898.jpg'
p1738
sa(dp1739
g3
(lp1740
sg8
g10
sg11
S'img_00895.jpg'
p1741
sa(dp1742
g3
(lp1743
sg8
g10
sg11
S'img_00893.jpg'
p1744
sa(dp1745
g3
(lp1746
sg8
g10
sg11
S'img_00885.jpg'
p1747
sa(dp1748
g3
(lp1749
sg8
g10
sg11
S'img_00881.jpg'
p1750
sa(dp1751
g3
(lp1752
sg8
g10
sg11
S'img_00880.jpg'
p1753
sa(dp1754
g3
(lp1755
sg8
g10
sg11
S'img_00863.jpg'
p1756
sa(dp1757
g3
(lp1758
sg8
g10
sg11
S'img_00834.jpg'
p1759
sa(dp1760
g3
(lp1761
sg8
g10
sg11
S'img_00810.jpg'
p1762
sa(dp1763
g3
(lp1764
sg8
g10
sg11
S'img_00793.jpg'
p1765
sa(dp1766
g3
(lp1767
sg8
g10
sg11
S'img_00790.jpg'
p1768
sa(dp1769
g3
(lp1770
sg8
g10
sg11
S'img_00742.jpg'
p1771
sa(dp1772
g3
(lp1773
sg8
g10
sg11
S'img_00741.jpg'
p1774
sa(dp1775
g3
(lp1776
sg8
g10
sg11
S'img_00722.jpg'
p1777
sa(dp1778
g3
(lp1779
sg8
g10
sg11
S'img_00710.jpg'
p1780
sa(dp1781
g3
(lp1782
sg8
g10
sg11
S'img_00687.jpg'
p1783
sa(dp1784
g3
(lp1785
sg8
g10
sg11
S'img_00684.jpg'
p1786
sa(dp1787
g3
(lp1788
sg8
g10
sg11
S'img_00679.jpg'
p1789
sa(dp1790
g3
(lp1791
sg8
g10
sg11
S'img_00643.jpg'
p1792
sa(dp1793
g3
(lp1794
sg8
g10
sg11
S'img_00632.jpg'
p1795
sa(dp1796
g3
(lp1797
sg8
g10
sg11
S'img_00607.jpg'
p1798
sa(dp1799
g3
(lp1800
sg8
g10
sg11
S'img_00596.jpg'
p1801
sa(dp1802
g3
(lp1803
sg8
g10
sg11
S'img_00595.jpg'
p1804
sa(dp1805
g3
(lp1806
sg8
g10
sg11
S'img_00570.jpg'
p1807
sa(dp1808
g3
(lp1809
sg8
g10
sg11
S'img_00526.jpg'
p1810
sa(dp1811
g3
(lp1812
sg8
g10
sg11
S'img_00509.jpg'
p1813
sa(dp1814
g3
(lp1815
sg8
g10
sg11
S'img_00508.jpg'
p1816
sa(dp1817
g3
(lp1818
sg8
g10
sg11
S'img_00507.jpg'
p1819
sa(dp1820
g3
(lp1821
sg8
g10
sg11
S'img_00496.jpg'
p1822
sa(dp1823
g3
(lp1824
sg8
g10
sg11
S'img_00451.jpg'
p1825
sa(dp1826
g3
(lp1827
sg8
g10
sg11
S'img_00447.jpg'
p1828
sa(dp1829
g3
(lp1830
sg8
g10
sg11
S'img_00421.jpg'
p1831
sa(dp1832
g3
(lp1833
sg8
g10
sg11
S'img_00403.jpg'
p1834
sa(dp1835
g3
(lp1836
sg8
g10
sg11
S'img_00401.jpg'
p1837
sa(dp1838
g3
(lp1839
sg8
g10
sg11
S'img_00396.jpg'
p1840
sa(dp1841
g3
(lp1842
sg8
g10
sg11
S'img_00366.jpg'
p1843
sa(dp1844
g3
(lp1845
sg8
g10
sg11
S'img_00353.jpg'
p1846
sa(dp1847
g3
(lp1848
sg8
g10
sg11
S'img_00317.jpg'
p1849
sa(dp1850
g3
(lp1851
sg8
g10
sg11
S'img_00301.jpg'
p1852
sa(dp1853
g3
(lp1854
sg8
g10
sg11
S'img_00291.jpg'
p1855
sa(dp1856
g3
(lp1857
sg8
g10
sg11
S'img_00248.jpg'
p1858
sa(dp1859
g3
(lp1860
sg8
g10
sg11
S'img_00209.jpg'
p1861
sa(dp1862
g3
(lp1863
sg8
g10
sg11
S'img_00206.jpg'
p1864
sa(dp1865
g3
(lp1866
sg8
g10
sg11
S'img_00193.jpg'
p1867
sa(dp1868
g3
(lp1869
sg8
g10
sg11
S'img_00177.jpg'
p1870
sa(dp1871
g3
(lp1872
sg8
g10
sg11
S'img_00156.jpg'
p1873
sa(dp1874
g3
(lp1875
sg8
g10
sg11
S'img_00110.jpg'
p1876
sa(dp1877
g3
(lp1878
sg8
g10
sg11
S'img_00085.jpg'
p1879
sa(dp1880
g3
(lp1881
sg8
g10
sg11
S'img_00074.jpg'
p1882
sa(dp1883
g3
(lp1884
sg8
g10
sg11
S'img_00039.jpg'
p1885
sa(dp1886
g3
(lp1887
sg8
g10
sg11
S'img_00038.jpg'
p1888
sa(dp1889
g3
(lp1890
sg8
g10
sg11
S'img_00032.jpg'
p1891
sa(dp1892
g3
(lp1893
sg8
g10
sg11
S'img_00015.jpg'
p1894
sa(dp1895
g3
(lp1896
sg8
g10
sg11
S'img_07917.jpg'
p1897
sa(dp1898
g3
(lp1899
sg8
g10
sg11
S'img_07912.jpg'
p1900
sa(dp1901
g3
(lp1902
sg8
g10
sg11
S'img_07903.jpg'
p1903
sa(dp1904
g3
(lp1905
sg8
g10
sg11
S'img_07892.jpg'
p1906
sa(dp1907
g3
(lp1908
sg8
g10
sg11
S'img_07885.jpg'
p1909
sa(dp1910
g3
(lp1911
sg8
g10
sg11
S'img_07868.jpg'
p1912
sa(dp1913
g3
(lp1914
sg8
g10
sg11
S'img_07851.jpg'
p1915
sa(dp1916
g3
(lp1917
sg8
g10
sg11
S'img_07850.jpg'
p1918
sa(dp1919
g3
(lp1920
sg8
g10
sg11
S'img_07836.jpg'
p1921
sa(dp1922
g3
(lp1923
sg8
g10
sg11
S'img_07826.jpg'
p1924
sa(dp1925
g3
(lp1926
sg8
g10
sg11
S'img_07822.jpg'
p1927
sa(dp1928
g3
(lp1929
sg8
g10
sg11
S'img_07814.jpg'
p1930
sa(dp1931
g3
(lp1932
sg8
g10
sg11
S'img_07801.jpg'
p1933
sa(dp1934
g3
(lp1935
sg8
g10
sg11
S'img_07789.jpg'
p1936
sa(dp1937
g3
(lp1938
sg8
g10
sg11
S'img_07772.jpg'
p1939
sa(dp1940
g3
(lp1941
sg8
g10
sg11
S'img_07767.jpg'
p1942
sa(dp1943
g3
(lp1944
sg8
g10
sg11
S'img_07755.jpg'
p1945
sa(dp1946
g3
(lp1947
sg8
g10
sg11
S'img_07740.jpg'
p1948
sa(dp1949
g3
(lp1950
sg8
g10
sg11
S'img_07732.jpg'
p1951
sa(dp1952
g3
(lp1953
sg8
g10
sg11
S'img_07730.jpg'
p1954
sa(dp1955
g3
(lp1956
sg8
g10
sg11
S'img_07727.jpg'
p1957
sa(dp1958
g3
(lp1959
sg8
g10
sg11
S'img_07710.jpg'
p1960
sa(dp1961
g3
(lp1962
sg8
g10
sg11
S'img_07709.jpg'
p1963
sa(dp1964
g3
(lp1965
sg8
g10
sg11
S'img_07705.jpg'
p1966
sa(dp1967
g3
(lp1968
sg8
g10
sg11
S'img_07681.jpg'
p1969
sa(dp1970
g3
(lp1971
sg8
g10
sg11
S'img_07672.jpg'
p1972
sa(dp1973
g3
(lp1974
sg8
g10
sg11
S'img_07671.jpg'
p1975
sa(dp1976
g3
(lp1977
sg8
g10
sg11
S'img_07669.jpg'
p1978
sa(dp1979
g3
(lp1980
sg8
g10
sg11
S'img_07668.jpg'
p1981
sa(dp1982
g3
(lp1983
sg8
g10
sg11
S'img_07657.jpg'
p1984
sa(dp1985
g3
(lp1986
sg8
g10
sg11
S'img_07647.jpg'
p1987
sa(dp1988
g3
(lp1989
sg8
g10
sg11
S'img_07645.jpg'
p1990
sa(dp1991
g3
(lp1992
sg8
g10
sg11
S'img_07640.jpg'
p1993
sa(dp1994
g3
(lp1995
sg8
g10
sg11
S'img_07639.jpg'
p1996
sa(dp1997
g3
(lp1998
sg8
g10
sg11
S'img_07619.jpg'
p1999
sa(dp2000
g3
(lp2001
sg8
g10
sg11
S'img_07608.jpg'
p2002
sa(dp2003
g3
(lp2004
sg8
g10
sg11
S'img_07604.jpg'
p2005
sa(dp2006
g3
(lp2007
sg8
g10
sg11
S'img_07567.jpg'
p2008
sa(dp2009
g3
(lp2010
sg8
g10
sg11
S'img_07566.jpg'
p2011
sa(dp2012
g3
(lp2013
sg8
g10
sg11
S'img_07560.jpg'
p2014
sa(dp2015
g3
(lp2016
sg8
g10
sg11
S'img_07558.jpg'
p2017
sa(dp2018
g3
(lp2019
sg8
g10
sg11
S'img_07554.jpg'
p2020
sa(dp2021
g3
(lp2022
sg8
g10
sg11
S'img_07549.jpg'
p2023
sa(dp2024
g3
(lp2025
sg8
g10
sg11
S'img_07542.jpg'
p2026
sa(dp2027
g3
(lp2028
sg8
g10
sg11
S'img_07540.jpg'
p2029
sa(dp2030
g3
(lp2031
sg8
g10
sg11
S'img_07537.jpg'
p2032
sa(dp2033
g3
(lp2034
sg8
g10
sg11
S'img_07522.jpg'
p2035
sa(dp2036
g3
(lp2037
sg8
g10
sg11
S'img_07492.jpg'
p2038
sa(dp2039
g3
(lp2040
sg8
g10
sg11
S'img_07491.jpg'
p2041
sa(dp2042
g3
(lp2043
sg8
g10
sg11
S'img_07488.jpg'
p2044
sa(dp2045
g3
(lp2046
sg8
g10
sg11
S'img_07486.jpg'
p2047
sa(dp2048
g3
(lp2049
sg8
g10
sg11
S'img_07463.jpg'
p2050
sa(dp2051
g3
(lp2052
sg8
g10
sg11
S'img_07461.jpg'
p2053
sa(dp2054
g3
(lp2055
sg8
g10
sg11
S'img_07454.jpg'
p2056
sa(dp2057
g3
(lp2058
sg8
g10
sg11
S'img_07452.jpg'
p2059
sa(dp2060
g3
(lp2061
sg8
g10
sg11
S'img_07450.jpg'
p2062
sa(dp2063
g3
(lp2064
sg8
g10
sg11
S'img_07449.jpg'
p2065
sa(dp2066
g3
(lp2067
sg8
g10
sg11
S'img_07444.jpg'
p2068
sa(dp2069
g3
(lp2070
sg8
g10
sg11
S'img_07442.jpg'
p2071
sa(dp2072
g3
(lp2073
sg8
g10
sg11
S'img_07439.jpg'
p2074
sa(dp2075
g3
(lp2076
sg8
g10
sg11
S'img_07432.jpg'
p2077
sa(dp2078
g3
(lp2079
sg8
g10
sg11
S'img_07424.jpg'
p2080
sa(dp2081
g3
(lp2082
sg8
g10
sg11
S'img_07412.jpg'
p2083
sa(dp2084
g3
(lp2085
sg8
g10
sg11
S'img_07394.jpg'
p2086
sa(dp2087
g3
(lp2088
sg8
g10
sg11
S'img_07390.jpg'
p2089
sa(dp2090
g3
(lp2091
sg8
g10
sg11
S'img_07384.jpg'
p2092
sa(dp2093
g3
(lp2094
sg8
g10
sg11
S'img_07380.jpg'
p2095
sa(dp2096
g3
(lp2097
sg8
g10
sg11
S'img_07377.jpg'
p2098
sa(dp2099
g3
(lp2100
sg8
g10
sg11
S'img_07349.jpg'
p2101
sa(dp2102
g3
(lp2103
sg8
g10
sg11
S'img_07328.jpg'
p2104
sa(dp2105
g3
(lp2106
sg8
g10
sg11
S'img_07306.jpg'
p2107
sa(dp2108
g3
(lp2109
sg8
g10
sg11
S'img_07299.jpg'
p2110
sa(dp2111
g3
(lp2112
sg8
g10
sg11
S'img_07298.jpg'
p2113
sa(dp2114
g3
(lp2115
sg8
g10
sg11
S'img_07296.jpg'
p2116
sa(dp2117
g3
(lp2118
sg8
g10
sg11
S'img_07291.jpg'
p2119
sa(dp2120
g3
(lp2121
sg8
g10
sg11
S'img_07285.jpg'
p2122
sa(dp2123
g3
(lp2124
sg8
g10
sg11
S'img_07272.jpg'
p2125
sa(dp2126
g3
(lp2127
sg8
g10
sg11
S'img_07257.jpg'
p2128
sa(dp2129
g3
(lp2130
sg8
g10
sg11
S'img_07255.jpg'
p2131
sa(dp2132
g3
(lp2133
sg8
g10
sg11
S'img_07252.jpg'
p2134
sa(dp2135
g3
(lp2136
sg8
g10
sg11
S'img_07241.jpg'
p2137
sa(dp2138
g3
(lp2139
sg8
g10
sg11
S'img_07228.jpg'
p2140
sa(dp2141
g3
(lp2142
sg8
g10
sg11
S'img_07225.jpg'
p2143
sa(dp2144
g3
(lp2145
sg8
g10
sg11
S'img_07197.jpg'
p2146
sa(dp2147
g3
(lp2148
sg8
g10
sg11
S'img_07178.jpg'
p2149
sa(dp2150
g3
(lp2151
sg8
g10
sg11
S'img_07174.jpg'
p2152
sa(dp2153
g3
(lp2154
sg8
g10
sg11
S'img_07172.jpg'
p2155
sa(dp2156
g3
(lp2157
sg8
g10
sg11
S'img_07170.jpg'
p2158
sa(dp2159
g3
(lp2160
sg8
g10
sg11
S'img_07159.jpg'
p2161
sa(dp2162
g3
(lp2163
sg8
g10
sg11
S'img_07153.jpg'
p2164
sa(dp2165
g3
(lp2166
sg8
g10
sg11
S'img_07150.jpg'
p2167
sa(dp2168
g3
(lp2169
sg8
g10
sg11
S'img_07134.jpg'
p2170
sa(dp2171
g3
(lp2172
sg8
g10
sg11
S'img_07113.jpg'
p2173
sa(dp2174
g3
(lp2175
sg8
g10
sg11
S'img_07105.jpg'
p2176
sa(dp2177
g3
(lp2178
sg8
g10
sg11
S'img_07098.jpg'
p2179
sa(dp2180
g3
(lp2181
sg8
g10
sg11
S'img_07092.jpg'
p2182
sa(dp2183
g3
(lp2184
sg8
g10
sg11
S'img_07083.jpg'
p2185
sa(dp2186
g3
(lp2187
sg8
g10
sg11
S'img_07076.jpg'
p2188
sa(dp2189
g3
(lp2190
sg8
g10
sg11
S'img_07057.jpg'
p2191
sa(dp2192
g3
(lp2193
sg8
g10
sg11
S'img_07046.jpg'
p2194
sa(dp2195
g3
(lp2196
sg8
g10
sg11
S'img_07041.jpg'
p2197
sa(dp2198
g3
(lp2199
sg8
g10
sg11
S'img_07039.jpg'
p2200
sa(dp2201
g3
(lp2202
sg8
g10
sg11
S'img_07037.jpg'
p2203
sa(dp2204
g3
(lp2205
sg8
g10
sg11
S'img_07035.jpg'
p2206
sa(dp2207
g3
(lp2208
sg8
g10
sg11
S'img_07031.jpg'
p2209
sa(dp2210
g3
(lp2211
sg8
g10
sg11
S'img_07030.jpg'
p2212
sa(dp2213
g3
(lp2214
sg8
g10
sg11
S'img_07014.jpg'
p2215
sa(dp2216
g3
(lp2217
sg8
g10
sg11
S'img_07009.jpg'
p2218
sa(dp2219
g3
(lp2220
sg8
g10
sg11
S'img_07008.jpg'
p2221
sa(dp2222
g3
(lp2223
sg8
g10
sg11
S'img_06995.jpg'
p2224
sa(dp2225
g3
(lp2226
sg8
g10
sg11
S'img_06989.jpg'
p2227
sa(dp2228
g3
(lp2229
sg8
g10
sg11
S'img_06987.jpg'
p2230
sa(dp2231
g3
(lp2232
sg8
g10
sg11
S'img_06970.jpg'
p2233
sa(dp2234
g3
(lp2235
sg8
g10
sg11
S'img_06961.jpg'
p2236
sa(dp2237
g3
(lp2238
sg8
g10
sg11
S'img_06950.jpg'
p2239
sa(dp2240
g3
(lp2241
sg8
g10
sg11
S'img_06948.jpg'
p2242
sa(dp2243
g3
(lp2244
sg8
g10
sg11
S'img_06944.jpg'
p2245
sa(dp2246
g3
(lp2247
sg8
g10
sg11
S'img_06942.jpg'
p2248
sa(dp2249
g3
(lp2250
sg8
g10
sg11
S'img_06932.jpg'
p2251
sa(dp2252
g3
(lp2253
sg8
g10
sg11
S'img_06931.jpg'
p2254
sa(dp2255
g3
(lp2256
sg8
g10
sg11
S'img_06887.jpg'
p2257
sa(dp2258
g3
(lp2259
sg8
g10
sg11
S'img_06882.jpg'
p2260
sa(dp2261
g3
(lp2262
sg8
g10
sg11
S'img_06873.jpg'
p2263
sa(dp2264
g3
(lp2265
sg8
g10
sg11
S'img_06865.jpg'
p2266
sa(dp2267
g3
(lp2268
sg8
g10
sg11
S'img_06864.jpg'
p2269
sa(dp2270
g3
(lp2271
sg8
g10
sg11
S'img_06853.jpg'
p2272
sa(dp2273
g3
(lp2274
sg8
g10
sg11
S'img_06833.jpg'
p2275
sa(dp2276
g3
(lp2277
sg8
g10
sg11
S'img_06823.jpg'
p2278
sa(dp2279
g3
(lp2280
sg8
g10
sg11
S'img_06797.jpg'
p2281
sa(dp2282
g3
(lp2283
sg8
g10
sg11
S'img_06796.jpg'
p2284
sa(dp2285
g3
(lp2286
sg8
g10
sg11
S'img_06774.jpg'
p2287
sa(dp2288
g3
(lp2289
sg8
g10
sg11
S'img_06767.jpg'
p2290
sa(dp2291
g3
(lp2292
sg8
g10
sg11
S'img_06760.jpg'
p2293
sa(dp2294
g3
(lp2295
sg8
g10
sg11
S'img_06749.jpg'
p2296
sa(dp2297
g3
(lp2298
sg8
g10
sg11
S'img_06727.jpg'
p2299
sa(dp2300
g3
(lp2301
sg8
g10
sg11
S'img_06720.jpg'
p2302
sa(dp2303
g3
(lp2304
sg8
g10
sg11
S'img_06716.jpg'
p2305
sa(dp2306
g3
(lp2307
sg8
g10
sg11
S'img_06711.jpg'
p2308
sa(dp2309
g3
(lp2310
sg8
g10
sg11
S'img_06702.jpg'
p2311
sa(dp2312
g3
(lp2313
sg8
g10
sg11
S'img_06695.jpg'
p2314
sa(dp2315
g3
(lp2316
sg8
g10
sg11
S'img_06694.jpg'
p2317
sa(dp2318
g3
(lp2319
sg8
g10
sg11
S'img_06693.jpg'
p2320
sa.