(lp1
(dp2
S'annotations'
p3
(lp4
(dp5
S'height'
p6
F87
sS'width'
p7
F245
sS'y'
F416
sS'x'
F379
sS'class'
p8
S'DOL'
p9
sasg8
S'image'
p10
sS'filename'
p11
S'img_07898.jpg'
p12
sa(dp13
g3
(lp14
(dp15
g6
F229
sg7
F281
sS'y'
F413
sS'x'
F426
sg8
g9
sasg8
g10
sg11
S'img_07728.jpg'
p16
sa(dp17
g3
(lp18
(dp19
g6
F57
sg7
F224
sS'y'
F426
sS'x'
F407
sg8
g9
sasg8
g10
sg11
S'img_07693.jpg'
p20
sa(dp21
g3
(lp22
(dp23
g6
F171
sg7
F84
sS'y'
F284
sS'x'
F701
sg8
g9
sasg8
g10
sg11
S'img_07643.jpg'
p24
sa(dp25
g3
(lp26
(dp27
g6
F89
sg7
F228
sS'y'
F438
sS'x'
F238
sg8
g9
sasg8
g10
sg11
S'img_07557.jpg'
p28
sa(dp29
g3
(lp30
(dp31
g6
F128
sg7
F153
sS'y'
F273
sS'x'
F216
sg8
g9
sasg8
g10
sg11
S'img_07302.jpg'
p32
sa(dp33
g3
(lp34
(dp35
g6
F149
sg7
F518
sS'y'
F650
sS'x'
F527
sg8
g9
sasg8
g10
sg11
S'img_07265.jpg'
p36
sa(dp37
g3
(lp38
(dp39
g6
F286
sg7
F526
sS'y'
F28
sS'x'
F395
sg8
S'YFT'
p40
sa(dp41
g6
F135
sg7
F159
sS'y'
F107
sS'x'
F1118
sg8
g9
sasg8
g10
sg11
S'img_07212.jpg'
p42
sa(dp43
g3
(lp44
(dp45
g6
F79
sg7
F244
sS'y'
F410
sS'x'
F329
sg8
g9
sasg8
g10
sg11
S'img_06952.jpg'
p46
sa(dp47
g3
(lp48
(dp49
g6
F209
sg7
F302
sS'y'
F463
sS'x'
F528
sg8
g9
sasg8
g10
sg11
S'img_06773.jpg'
p50
sa(dp51
g3
(lp52
(dp53
g6
F100
sg7
F247
sS'y'
F412
sS'x'
F375
sg8
g9
sasg8
g10
sg11
S'img_06768.jpg'
p54
sa(dp55
g3
(lp56
(dp57
g6
F81
sg7
F234
sS'y'
F414
sS'x'
F388
sg8
g9
sasg8
g10
sg11
S'img_06671.jpg'
p58
sa(dp59
g3
(lp60
(dp61
g6
F94
sg7
F243
sS'y'
F413
sS'x'
F352
sg8
g9
sasg8
g10
sg11
S'img_06644.jpg'
p62
sa(dp63
g3
(lp64
(dp65
g6
F124
sg7
F246
sS'y'
F391
sS'x'
F378
sg8
g9
sasg8
g10
sg11
S'img_06579.jpg'
p66
sa(dp67
g3
(lp68
(dp69
g6
F109
sg7
F237
sS'y'
F411
sS'x'
F302
sg8
g9
sasg8
g10
sg11
S'img_06442.jpg'
p70
sa(dp71
g3
(lp72
(dp73
g6
F137
sg7
F154
sS'y'
F391
sS'x'
F423
sg8
g9
sasg8
g10
sg11
S'img_06334.jpg'
p74
sa(dp75
g3
(lp76
(dp77
g6
F170
sg7
F218
sS'y'
F543
sS'x'
F436
sg8
g9
sasg8
g10
sg11
S'img_06299.jpg'
p78
sa(dp79
g3
(lp80
(dp81
g6
F103
sg7
F237
sS'y'
F403
sS'x'
F394
sg8
g9
sasg8
g10
sg11
S'img_06297.jpg'
p82
sa(dp83
g3
(lp84
(dp85
g6
F151
sg7
F404
sS'y'
F341
sS'x'
F203
sg8
g9
sasg8
g10
sg11
S'img_06284.jpg'
p86
sa(dp87
g3
(lp88
(dp89
g6
F101
sg7
F242
sS'y'
F411
sS'x'
F299
sg8
g9
sasg8
g10
sg11
S'img_06244.jpg'
p90
sa(dp91
g3
(lp92
(dp93
g6
F76
sg7
F210
sS'y'
F413
sS'x'
F339
sg8
g9
sasg8
g10
sg11
S'img_06209.jpg'
p94
sa(dp95
g3
(lp96
(dp97
g6
F207
sg7
F94
sS'y'
F240
sS'x'
F712
sg8
g9
sasg8
g10
sg11
S'img_06204.jpg'
p98
sa(dp99
g3
(lp100
sg8
g10
sg11
S'img_06117.jpg'
p101
sa(dp102
g3
(lp103
(dp104
g6
F134
sg7
F377
sS'y'
F353
sS'x'
F198
sg8
g9
sasg8
g10
sg11
S'img_06012.jpg'
p105
sa(dp106
g3
(lp107
(dp108
g6
F106
sg7
F222
sS'y'
F407
sS'x'
F402
sg8
g9
sasg8
g10
sg11
S'img_05971.jpg'
p109
sa(dp110
g3
(lp111
(dp112
g6
F210
sg7
F122
sS'y'
F247
sS'x'
F701
sg8
g9
sasg8
g10
sg11
S'img_05934.jpg'
p113
sa(dp114
g3
(lp115
(dp116
g6
F121
sg7
F231
sS'y'
F406
sS'x'
F316
sg8
g9
sasg8
g10
sg11
S'img_05923.jpg'
p117
sa(dp118
g3
(lp119
(dp120
g6
F172
sg7
F365
sS'y'
F292
sS'x'
F231
sg8
g9
sasg8
g10
sg11
S'img_05894.jpg'
p121
sa(dp122
g3
(lp123
(dp124
g6
F93
sg7
F245
sS'y'
F417
sS'x'
F368
sg8
g9
sasg8
g10
sg11
S'img_05782.jpg'
p125
sa(dp126
g3
(lp127
(dp128
g6
F119
sg7
F250
sS'y'
F393
sS'x'
F364
sg8
g9
sasg8
g10
sg11
S'img_05635.jpg'
p129
sa(dp130
g3
(lp131
(dp132
g6
F144
sg7
F297
sS'y'
F400
sS'x'
F427
sg8
g9
sasg8
g10
sg11
S'img_05571.jpg'
p133
sa(dp134
g3
(lp135
sg8
g10
sg11
S'img_05557.jpg'
p136
sa(dp137
g3
(lp138
(dp139
g6
F148
sg7
F421
sS'y'
F309
sS'x'
F226
sg8
g9
sasg8
g10
sg11
S'img_05521.jpg'
p140
sa(dp141
g3
(lp142
(dp143
g6
F82
sg7
F230
sS'y'
F414
sS'x'
F406
sg8
g9
sasg8
g10
sg11
S'img_05485.jpg'
p144
sa(dp145
g3
(lp146
(dp147
g6
F108
sg7
F237
sS'y'
F408
sS'x'
F280
sg8
g9
sasg8
g10
sg11
S'img_05462.jpg'
p148
sa(dp149
g3
(lp150
(dp151
g6
F234
sg7
F471
sS'y'
F582
sS'x'
F467
sg8
g9
sasg8
g10
sg11
S'img_05446.jpg'
p152
sa(dp153
g3
(lp154
sg8
g10
sg11
S'img_05444.jpg'
p155
sa(dp156
g3
(lp157
(dp158
g6
F227
sg7
F276
sS'y'
F490
sS'x'
F578
sg8
g9
sasg8
g10
sg11
S'img_05420.jpg'
p159
sa(dp160
g3
(lp161
(dp162
g6
F100
sg7
F95
sS'y'
F274
sS'x'
F698
sg8
g9
sasg8
g10
sg11
S'img_05367.jpg'
p163
sa(dp164
g3
(lp165
(dp166
g6
F80
sg7
F219
sS'y'
F408
sS'x'
F335
sg8
g9
sasg8
g10
sg11
S'img_05294.jpg'
p167
sa(dp168
g3
(lp169
(dp170
g6
F194
sg7
F257
sS'y'
F344
sS'x'
F163
sg8
g9
sasg8
g10
sg11
S'img_05165.jpg'
p171
sa(dp172
g3
(lp173
(dp174
g6
F101
sg7
F222
sS'y'
F399
sS'x'
F409
sg8
g9
sasg8
g10
sg11
S'img_05054.jpg'
p175
sa(dp176
g3
(lp177
(dp178
g6
F159
sg7
F133
sS'y'
F273
sS'x'
F288
sg8
g9
sasg8
g10
sg11
S'img_04927.jpg'
p179
sa(dp180
g3
(lp181
(dp182
g6
F213
sg7
F90
sS'y'
F236
sS'x'
F722
sg8
g9
sasg8
g10
sg11
S'img_04824.jpg'
p183
sa(dp184
g3
(lp185
(dp186
g6
F81
sg7
F226
sS'y'
F440
sS'x'
F248
sg8
g9
sasg8
g10
sg11
S'img_04760.jpg'
p187
sa(dp188
g3
(lp189
(dp190
g6
F105
sg7
F245
sS'y'
F440
sS'x'
F462
sg8
g9
sasg8
g10
sg11
S'img_04743.jpg'
p191
sa(dp192
g3
(lp193
(dp194
g6
F211
sg7
F281
sS'y'
F469
sS'x'
F553
sg8
g9
sasg8
g10
sg11
S'img_04676.jpg'
p195
sa(dp196
g3
(lp197
(dp198
g6
F98
sg7
F241
sS'y'
F413
sS'x'
F380
sg8
g9
sasg8
g10
sg11
S'img_04614.jpg'
p199
sa(dp200
g3
(lp201
(dp202
g6
F144
sg7
F419
sS'y'
F334
sS'x'
F222
sg8
g9
sasg8
g10
sg11
S'img_04385.jpg'
p203
sa(dp204
g3
(lp205
(dp206
g6
F162
sg7
F175
sS'y'
F415
sS'x'
F340
sg8
g9
sasg8
g10
sg11
S'img_04363.jpg'
p207
sa(dp208
g3
(lp209
(dp210
g6
F153
sg7
F150
sS'y'
F419
sS'x'
F407
sg8
g9
sasg8
g10
sg11
S'img_04314.jpg'
p211
sa(dp212
g3
(lp213
(dp214
g6
F149
sg7
F441
sS'y'
F358
sS'x'
F200
sg8
g9
sasg8
g10
sg11
S'img_04283.jpg'
p215
sa(dp216
g3
(lp217
(dp218
g6
F79
sg7
F209
sS'y'
F439
sS'x'
F237
sg8
g9
sasg8
g10
sg11
S'img_03997.jpg'
p219
sa(dp220
g3
(lp221
(dp222
g6
F84
sg7
F229
sS'y'
F416
sS'x'
F398
sg8
g9
sasg8
g10
sg11
S'img_03922.jpg'
p223
sa(dp224
g3
(lp225
(dp226
g6
F228
sg7
F182
sS'y'
F399
sS'x'
F445
sg8
g9
sasg8
g10
sg11
S'img_03843.jpg'
p227
sa(dp228
g3
(lp229
(dp230
g6
F84
sg7
F243
sS'y'
F417
sS'x'
F374
sg8
g9
sasg8
g10
sg11
S'img_03727.jpg'
p231
sa(dp232
g3
(lp233
(dp234
g6
F195
sg7
F160
sS'y'
F313
sS'x'
F389
sg8
g9
sasg8
g10
sg11
S'img_03689.jpg'
p235
sa(dp236
g3
(lp237
(dp238
g6
F95
sg7
F235
sS'y'
F408
sS'x'
F302
sg8
g9
sasg8
g10
sg11
S'img_03546.jpg'
p239
sa(dp240
g3
(lp241
(dp242
g6
F217
sg7
F160
sS'y'
F313
sS'x'
F355
sg8
g9
sasg8
g10
sg11
S'img_03409.jpg'
p243
sa(dp244
g3
(lp245
(dp246
g6
F106
sg7
F236
sS'y'
F409
sS'x'
F349
sg8
g9
sasg8
g10
sg11
S'img_03296.jpg'
p247
sa(dp248
g3
(lp249
(dp250
g6
F148
sg7
F281
sS'y'
F345
sS'x'
F208
sg8
g9
sasg8
g10
sg11
S'img_03259.jpg'
p251
sa(dp252
g3
(lp253
(dp254
g6
F105
sg7
F299
sS'y'
F340
sS'x'
F154
sg8
g9
sasg8
g10
sg11
S'img_02953.jpg'
p255
sa(dp256
g3
(lp257
(dp258
g6
F237
sg7
F163
sS'y'
F300
sS'x'
F372
sg8
g9
sasg8
g10
sg11
S'img_02937.jpg'
p259
sa(dp260
g3
(lp261
(dp262
g6
F162
sg7
F278
sS'y'
F348
sS'x'
F156
sg8
g9
sasg8
g10
sg11
S'img_02936.jpg'
p263
sa(dp264
g3
(lp265
(dp266
g6
F71
sg7
F243
sS'y'
F421
sS'x'
F392
sg8
g9
sasg8
g10
sg11
S'img_02926.jpg'
p267
sa(dp268
g3
(lp269
(dp270
g6
F144
sg7
F316
sS'y'
F305
sS'x'
F199
sg8
g9
sasg8
g10
sg11
S'img_02910.jpg'
p271
sa(dp272
g3
(lp273
(dp274
g6
F167
sg7
F185
sS'y'
F571
sS'x'
F464
sg8
g9
sasg8
g10
sg11
S'img_02798.jpg'
p275
sa(dp276
g3
(lp277
(dp278
g6
F149
sg7
F262
sS'y'
F306
sS'x'
F140
sg8
g9
sasg8
g10
sg11
S'img_02772.jpg'
p279
sa(dp280
g3
(lp281
(dp282
g6
F109
sg7
F228
sS'y'
F409
sS'x'
F313
sg8
g9
sasg8
g10
sg11
S'img_02752.jpg'
p283
sa(dp284
g3
(lp285
(dp286
g6
F205.08369587796096
sg7
F119.83238214697349
sS'y'
F766
sS'x'
F796
sg8
g9
sasg8
g10
sg11
S'img_02654.jpg'
p287
sa(dp288
g3
(lp289
(dp290
g6
F206.32722066129713
sg7
F294.75317237328176
sS'y'
F415.18089708579396
sS'x'
F423.60241629645913
sg8
g9
sasg8
g10
sg11
S'img_02599.jpg'
p291
sa(dp292
g3
(lp293
(dp294
g6
F261.06709553062097
sg7
F186.95772647676728
sS'y'
F296.43747621541473
sS'x'
F368.02038950606885
sg8
g9
sasg8
g10
sg11
S'img_02529.jpg'
p295
sa(dp296
g3
(lp297
(dp298
g6
F140.63937081810877
sg7
F322.54418576847684
sS'y'
F419.39165669112651
sS'x'
F360.44102221647017
sg8
g9
sasg8
g10
sg11
S'img_02475.jpg'
p299
sa(dp300
g3
(lp301
(dp302
g6
F140.63937081810872
sg7
F293.06886853114867
sS'y'
F279.59443779408434
sS'x'
F141.4815227391752
sg8
g9
sasg8
g10
sg11
S'img_02474.jpg'
p303
sa(dp304
g3
(lp305
sg8
g10
sg11
S'img_02440.jpg'
p306
sa(dp307
g3
(lp308
(dp309
g6
F108.63759781758102
sg7
F230.7496263722262
sS'y'
F439.60330279672297
sS'x'
F464.86786042871859
sg8
g9
sasg8
g10
sg11
S'img_02432.jpg'
p310
sa(dp311
g3
(lp312
(dp313
g6
F147.37658618664085
sg7
F357.91456645327071
sS'y'
F304.01684350501341
sS'x'
F174.32544766076947
sg8
g9
sasg8
g10
sg11
S'img_02378.jpg'
p314
sa(dp315
g3
(lp316
(dp317
g6
F162.53532076583821
sg7
F211.38013218769629
sS'y'
F313.28051463674512
sS'x'
F246.75051287249011
sg8
g9
sasg8
g10
sg11
S'img_02341.jpg'
p318
sa(dp319
g3
(lp320
(dp321
g6
F207.16937258236374
sg7
F261.90924745168741
sS'y'
F427.81317590179174
sS'x'
F521.29203914017535
sg8
g9
sasg8
g10
sg11
S'img_02333.jpg'
p322
sa(dp323
g3
(lp324
(dp325
g6
F80.004432501319286
sg7
F213.06443602982938
sS'y'
F418.54950477006003
sS'x'
F416.02304900686045
sg8
g9
sasg8
g10
sg11
S'img_02267.jpg'
p326
sa(dp327
g3
(lp328
(dp329
g6
F87.583799790918022
sg7
F244.22405710929053
sS'y'
F416.02304900686045
sS'x'
F355.38811069007107
sg8
g9
sasg8
g10
sg11
S'img_02210.jpg'
p330
sa(dp331
g3
(lp332
(dp333
g6
F97.689622843716222
sg7
F96.847470922649677
sS'y'
F272.01507050448566
sS'x'
F701.51255024841043
sg8
g9
sasg8
g10
sg11
S'img_02100.jpg'
p334
sa(dp335
g3
(lp336
(dp337
g6
F155.79810539730607
sg7
F384.86342792739924
sS'y'
F310.75405887354555
sS'x'
F164.21962460797124
sg8
g9
sasg8
g10
sg11
S'img_01850.jpg'
p338
sa(dp339
g3
(lp340
(dp341
g6
F175.16759958183599
sg7
F320.01773000527726
sS'y'
F273.6993743466187
sS'x'
F254.32988016208878
sg8
g9
sasg8
g10
sg11
S'img_01844.jpg'
p342
sa(dp343
g3
(lp344
(dp345
g6
F186.95772647676725
sg7
F70.740761369587631
sS'y'
F255.1720320831553
sS'x'
F717.51343674867428
sg8
g9
sasg8
g10
sg11
S'img_01812.jpg'
p346
sa(dp347
g3
(lp348
(dp349
g6
F160.00886500263863
sg7
F300.64823582074735
sS'y'
F352.01950300580501
sS'x'
F196.22139760849896
sg8
g9
sasg8
g10
sg11
S'img_01776.jpg'
p350
sa(dp351
g3
(lp352
(dp353
g6
F107.79544589651448
sg7
F85.899495948784988
sS'y'
F265.27785513595353
sS'x'
F704.03900601161001
sg8
g9
sasg8
g10
sg11
S'img_01757.jpg'
p354
sa(dp355
g3
(lp356
(dp357
g6
F154.11380155517304
sg7
F208.01152450343028
sS'y'
F549.92520445643697
sS'x'
F439.60330279672297
sg8
g9
sasg8
g10
sg11
S'img_01628.jpg'
p358
sa(dp359
g3
(lp360
(dp361
g6
F197.90570145063197
sg7
F180.22051110823509
sS'y'
F282.12089355728392
sS'x'
F257.69848784635485
sg8
g9
sasg8
g10
sg11
S'img_01615.jpg'
p362
sa(dp363
g3
(lp364
(dp365
g6
F83.37304018558541
sg7
F240.01329750395797
sS'y'
F417.70735284899348
sS'x'
F392.44279521699792
sg8
g9
sasg8
g10
sg11
S'img_01608.jpg'
p366
sa(dp367
g3
(lp368
(dp369
g6
F109.47974973864746
sg7
F235.80253789862536
sS'y'
F433.70823934925738
sS'x'
F459.81494890231943
sg8
g9
sasg8
g10
sg11
S'img_01596.jpg'
p370
sa(dp371
g3
(lp372
(dp373
g6
F225.6967148458271
sg7
F363.80962990073635
sS'y'
F284.6473493204835
sS'x'
F236.64468981969188
sg8
g9
sasg8
g10
sg11
S'img_01531.jpg'
p374
sa(dp375
g3
(lp376
(dp377
g6
F124.63848431784481
sg7
F208.85367642449677
sS'y'
F560.87317943030178
sS'x'
F429.49747974392477
sg8
g9
sasg8
g10
sg11
S'img_01474.jpg'
p378
sa(dp379
g3
(lp380
(dp381
g6
F236.64468981969185
sg7
F256.85633592528836
sS'y'
F492.65887382391372
sS'x'
F590.34849666762989
sg8
g9
sasg8
g10
sg11
S'img_01471.jpg'
p382
sa(dp383
g3
(lp384
(dp385
g6
F264.79782854094572
sg7
F119.93085507908302
sS'y'
F602.02914381282255
sS'x'
F824.07934084043177
sg8
g9
sasg8
g10
sg11
S'img_01470.jpg'
p386
sa(dp387
g3
(lp388
(dp389
g6
F274.29730221057594
sg7
F473.78624927281311
sS'y'
F531.9705254992989
sS'x'
F489.22289398596234
sg8
g9
sa(dp390
g6
F153.17901292278918
sg7
F571.15585438652397
sS'y'
F777.76940670098384
sS'x'
F303.98315742817078
sg8
g9
sa(dp391
g6
F118.74342087037917
sg7
F421.53914408984622
sS'y'
F761.14532777913075
sS'x'
F62.93401306130098
sg8
g9
sasg8
g10
sg11
S'img_01397.jpg'
p392
sa(dp393
g3
(lp394
(dp395
g6
F127.05546033130577
sg7
F222.0501970276091
sS'y'
F435.78835459429172
sS'x'
F466.6616440205903
sg8
g9
sasg8
g10
sg11
S'img_01360.jpg'
p396
sa(dp397
g3
(lp398
sg8
g10
sg11
S'img_01311.jpg'
p399
sa(dp400
g3
(lp401
(dp402
g6
F108.05651299204504
sg7
F235.11197332335092
sS'y'
F398.97789412447418
sS'x'
F376.41664415910208
sg8
g9
sasg8
g10
sg11
S'img_01232.jpg'
p403
sa(dp404
g3
(lp405
(dp406
g6
F100.93190773982229
sg7
F227.98736807112806
sS'y'
F403.72763095928934
sS'x'
F336.04388106317316
sg8
g9
sasg8
g10
sg11
S'img_01185.jpg'
p407
sa(dp408
g3
(lp409
(dp410
g6
F229.17480227983191
sg7
F162.67848659241952
sS'y'
F298.04598638465183
sS'x'
F330.1067100196542
sg8
g9
sasg8
g10
sg11
S'img_01153.jpg'
p411
sa(dp412
g3
(lp413
(dp414
g6
F263.61039433224181
sg7
F283.79677588020633
sS'y'
F382.35381520262109
sS'x'
F434.60092038558793
sg8
g9
sasg8
g10
sg11
S'img_01055.jpg'
p415
sa(dp416
g3
(lp417
(dp418
g6
F100.93190773982229
sg7
F218.48789440149778
sS'y'
F398.97789412447418
sS'x'
F303.98315742817078
sg8
g9
sasg8
g10
sg11
S'img_01042.jpg'
p419
sa(dp420
g3
(lp421
(dp422
g6
F144.86697346186264
sg7
F284.98421008891012
sS'y'
F314.67006530650491
sS'x'
F167.42822342723468
sg8
g9
sasg8
g10
sg11
S'img_00983.jpg'
p423
sa(dp424
g3
(lp425
(dp426
g6
F261.23552591483423
sg7
F129.43032874871329
sS'y'
F420.35170988114243
sS'x'
F425.10144671595759
sg8
g9
sasg8
g10
sg11
S'img_00951.jpg'
p427
sa(dp428
g3
(lp429
(dp430
g6
F179.3025655142726
sg7
F331.29414422835794
sS'y'
F300.42085480205941
sS'x'
F227.98736807112809
sg8
g9
sasg8
g10
sg11
S'img_00918.jpg'
p431
sa(dp432
g3
(lp433
(dp434
g6
F91.43243407019196
sg7
F157.92874975760438
sS'y'
F425.10144671595759
sS'x'
F243.42401278427738
sg8
g9
sasg8
g10
sg11
S'img_00770.jpg'
p435
sa(dp436
g3
(lp437
(dp438
g6
F60.559144643893376
sg7
F222.05019702760916
sS'y'
F426.28888092466138
sS'x'
F410.85223621151209
sg8
g9
sasg8
g10
sg11
S'img_00734.jpg'
p439
sa(dp440
g3
(lp441
(dp442
g6
F93.807302487599543
sg7
F241.04914436686977
sS'y'
F409.6648020028083
sS'x'
F349.10565735891487
sg8
g9
sasg8
g10
sg11
S'img_00733.jpg'
p443
sa(dp444
g3
(lp445
(dp446
g6
F166.24078921853089
sg7
F293.2962495498366
sS'y'
F271.92243379316841
sS'x'
F217.30046019279396
sg8
g9
sasg8
g10
sg11
S'img_00689.jpg'
p447
sa(dp448
g3
(lp449
(dp450
g6
F104.49421036593367
sg7
F237.48684174075839
sS'y'
F406.10249937669693
sS'x'
F286.17164429761391
sg8
g9
sasg8
g10
sg11
S'img_00678.jpg'
p451
sa(dp452
g3
(lp453
(dp454
g6
F104.49421036593378
sg7
F208.98842073186745
sS'y'
F566.4061175517088
sS'x'
F438.1632230116993
sg8
g9
sasg8
g10
sg11
S'img_00644.jpg'
p455
sa(dp456
g3
(lp457
(dp458
g6
F205.42611810575596
sg7
F227.98736807112806
sS'y'
F382.35381520262109
sS'x'
F336.04388106317316
sg8
g9
sasg8
g10
sg11
S'img_00565.jpg'
p459
sa(dp460
g3
(lp461
(dp462
g6
F207.8009865231636
sg7
F180.48999972297639
sS'y'
F275.48473641927978
sS'x'
F276.67217062798358
sg8
g9
sasg8
g10
sg11
S'img_00352.jpg'
p463
sa(dp464
g3
(lp465
(dp466
g6
F125.86802612260198
sg7
F372.8543415329907
sS'y'
F325.35697318483903
sS'x'
F160.30361817501193
sg8
g9
sasg8
g10
sg11
S'img_00348.jpg'
p467
sa(dp468
g3
(lp469
(dp470
g6
F97.369605113710918
sg7
F219.67532861020157
sS'y'
F401.35276254188176
sS'x'
F410.85223621151209
sg8
g9
sasg8
g10
sg11
S'img_00325.jpg'
p471
sa(dp472
g3
(lp473
(dp474
g6
F203.05124968834843
sg7
F121.11828928778675
sS'y'
F261.23552591483428
sS'x'
F694.64901209171842
sg8
g9
sasg8
g10
sg11
S'img_00165.jpg'
p475
sa.