(lp1
(dp2
S'annotations'
p3
(lp4
sS'class'
p5
S'image'
p6
sS'filename'
p7
S'img_07891.jpg'
p8
sa(dp9
g3
(lp10
sg5
g6
sg7
S'img_07782.jpg'
p11
sa(dp12
g3
(lp13
sg5
g6
sg7
S'img_07761.jpg'
p14
sa(dp15
g3
(lp16
sg5
g6
sg7
S'img_07714.jpg'
p17
sa(dp18
g3
(lp19
sg5
g6
sg7
S'img_07648.jpg'
p20
sa(dp21
g3
(lp22
sg5
g6
sg7
S'img_07633.jpg'
p23
sa(dp24
g3
(lp25
sg5
g6
sg7
S'img_07610.jpg'
p26
sa(dp27
g3
(lp28
sg5
g6
sg7
S'img_07602.jpg'
p29
sa(dp30
g3
(lp31
sg5
g6
sg7
S'img_07595.jpg'
p32
sa(dp33
g3
(lp34
sg5
g6
sg7
S'img_07562.jpg'
p35
sa(dp36
g3
(lp37
sg5
g6
sg7
S'img_07431.jpg'
p38
sa(dp39
g3
(lp40
sg5
g6
sg7
S'img_07429.jpg'
p41
sa(dp42
g3
(lp43
sg5
g6
sg7
S'img_07388.jpg'
p44
sa(dp45
g3
(lp46
sg5
g6
sg7
S'img_07344.jpg'
p47
sa(dp48
g3
(lp49
sg5
g6
sg7
S'img_07341.jpg'
p50
sa(dp51
g3
(lp52
sg5
g6
sg7
S'img_07338.jpg'
p53
sa(dp54
g3
(lp55
sg5
g6
sg7
S'img_07261.jpg'
p56
sa(dp57
g3
(lp58
sg5
g6
sg7
S'img_07250.jpg'
p59
sa(dp60
g3
(lp61
sg5
g6
sg7
S'img_07233.jpg'
p62
sa(dp63
g3
(lp64
sg5
g6
sg7
S'img_07166.jpg'
p65
sa(dp66
g3
(lp67
sg5
g6
sg7
S'img_07116.jpg'
p68
sa(dp69
g3
(lp70
sg5
g6
sg7
S'img_07061.jpg'
p71
sa(dp72
g3
(lp73
sg5
g6
sg7
S'img_07038.jpg'
p74
sa(dp75
g3
(lp76
sg5
g6
sg7
S'img_06835.jpg'
p77
sa(dp78
g3
(lp79
sg5
g6
sg7
S'img_06805.jpg'
p80
sa(dp81
g3
(lp82
sg5
g6
sg7
S'img_06782.jpg'
p83
sa(dp84
g3
(lp85
sg5
g6
sg7
S'img_06765.jpg'
p86
sa(dp87
g3
(lp88
sg5
g6
sg7
S'img_06754.jpg'
p89
sa(dp90
g3
(lp91
sg5
g6
sg7
S'img_06724.jpg'
p92
sa(dp93
g3
(lp94
sg5
g6
sg7
S'img_06672.jpg'
p95
sa(dp96
g3
(lp97
sg5
g6
sg7
S'img_06660.jpg'
p98
sa(dp99
g3
(lp100
sg5
g6
sg7
S'img_06650.jpg'
p101
sa(dp102
g3
(lp103
sg5
g6
sg7
S'img_06635.jpg'
p104
sa(dp105
g3
(lp106
sg5
g6
sg7
S'img_06599.jpg'
p107
sa(dp108
g3
(lp109
sg5
g6
sg7
S'img_06434.jpg'
p110
sa(dp111
g3
(lp112
sg5
g6
sg7
S'img_06404.jpg'
p113
sa(dp114
g3
(lp115
sg5
g6
sg7
S'img_06085.jpg'
p116
sa(dp117
g3
(lp118
sg5
g6
sg7
S'img_06079.jpg'
p119
sa(dp120
g3
(lp121
sg5
g6
sg7
S'img_05787.jpg'
p122
sa(dp123
g3
(lp124
sg5
g6
sg7
S'img_05729.jpg'
p125
sa(dp126
g3
(lp127
sg5
g6
sg7
S'img_05695.jpg'
p128
sa(dp129
g3
(lp130
sg5
g6
sg7
S'img_05624.jpg'
p131
sa(dp132
g3
(lp133
sg5
g6
sg7
S'img_05592.jpg'
p134
sa(dp135
g3
(lp136
sg5
g6
sg7
S'img_05478.jpg'
p137
sa(dp138
g3
(lp139
sg5
g6
sg7
S'img_05451.jpg'
p140
sa(dp141
g3
(lp142
sg5
g6
sg7
S'img_05407.jpg'
p143
sa(dp144
g3
(lp145
sg5
g6
sg7
S'img_05370.jpg'
p146
sa(dp147
g3
(lp148
sg5
g6
sg7
S'img_05307.jpg'
p149
sa(dp150
g3
(lp151
sg5
g6
sg7
S'img_05184.jpg'
p152
sa(dp153
g3
(lp154
sg5
g6
sg7
S'img_05174.jpg'
p155
sa(dp156
g3
(lp157
sg5
g6
sg7
S'img_05170.jpg'
p158
sa(dp159
g3
(lp160
sg5
g6
sg7
S'img_05048.jpg'
p161
sa(dp162
g3
(lp163
sg5
g6
sg7
S'img_05014.jpg'
p164
sa(dp165
g3
(lp166
sg5
g6
sg7
S'img_04908.jpg'
p167
sa(dp168
g3
(lp169
sg5
g6
sg7
S'img_04765.jpg'
p170
sa(dp171
g3
(lp172
sg5
g6
sg7
S'img_04694.jpg'
p173
sa(dp174
g3
(lp175
sg5
g6
sg7
S'img_04681.jpg'
p176
sa(dp177
g3
(lp178
sg5
g6
sg7
S'img_04632.jpg'
p179
sa(dp180
g3
(lp181
sg5
g6
sg7
S'img_04394.jpg'
p182
sa(dp183
g3
(lp184
sg5
g6
sg7
S'img_04319.jpg'
p185
sa(dp186
g3
(lp187
sg5
g6
sg7
S'img_04316.jpg'
p188
sa(dp189
g3
(lp190
sg5
g6
sg7
S'img_04258.jpg'
p191
sa(dp192
g3
(lp193
sg5
g6
sg7
S'img_04255.jpg'
p194
sa(dp195
g3
(lp196
sg5
g6
sg7
S'img_04208.jpg'
p197
sa(dp198
g3
(lp199
sg5
g6
sg7
S'img_04096.jpg'
p200
sa(dp201
g3
(lp202
sg5
g6
sg7
S'img_04077.jpg'
p203
sa(dp204
g3
(lp205
sg5
g6
sg7
S'img_03968.jpg'
p206
sa(dp207
g3
(lp208
sg5
g6
sg7
S'img_03898.jpg'
p209
sa(dp210
g3
(lp211
sg5
g6
sg7
S'img_03824.jpg'
p212
sa(dp213
g3
(lp214
sg5
g6
sg7
S'img_03596.jpg'
p215
sa(dp216
g3
(lp217
sg5
g6
sg7
S'img_03464.jpg'
p218
sa(dp219
g3
(lp220
sg5
g6
sg7
S'img_03340.jpg'
p221
sa(dp222
g3
(lp223
sg5
g6
sg7
S'img_03301.jpg'
p224
sa(dp225
g3
(lp226
sg5
g6
sg7
S'img_03198.jpg'
p227
sa(dp228
g3
(lp229
sg5
g6
sg7
S'img_03185.jpg'
p230
sa(dp231
g3
(lp232
sg5
g6
sg7
S'img_02990.jpg'
p233
sa(dp234
g3
(lp235
sg5
g6
sg7
S'img_02976.jpg'
p236
sa(dp237
g3
(lp238
sg5
g6
sg7
S'img_02968.jpg'
p239
sa(dp240
g3
(lp241
sg5
g6
sg7
S'img_02966.jpg'
p242
sa(dp243
g3
(lp244
sg5
g6
sg7
S'img_02884.jpg'
p245
sa(dp246
g3
(lp247
sg5
g6
sg7
S'img_02845.jpg'
p248
sa(dp249
g3
(lp250
sg5
g6
sg7
S'img_02809.jpg'
p251
sa(dp252
g3
(lp253
sg5
g6
sg7
S'img_02785.jpg'
p254
sa(dp255
g3
(lp256
sg5
g6
sg7
S'img_02550.jpg'
p257
sa(dp258
g3
(lp259
sg5
g6
sg7
S'img_02516.jpg'
p260
sa(dp261
g3
(lp262
sg5
g6
sg7
S'img_02505.jpg'
p263
sa(dp264
g3
(lp265
sg5
g6
sg7
S'img_02427.jpg'
p266
sa(dp267
g3
(lp268
sg5
g6
sg7
S'img_02411.jpg'
p269
sa(dp270
g3
(lp271
sg5
g6
sg7
S'img_02355.jpg'
p272
sa(dp273
g3
(lp274
sg5
g6
sg7
S'img_02311.jpg'
p275
sa(dp276
g3
(lp277
sg5
g6
sg7
S'img_02275.jpg'
p278
sa(dp279
g3
(lp280
sg5
g6
sg7
S'img_02262.jpg'
p281
sa(dp282
g3
(lp283
sg5
g6
sg7
S'img_02258.jpg'
p284
sa(dp285
g3
(lp286
sg5
g6
sg7
S'img_02255.jpg'
p287
sa(dp288
g3
(lp289
sg5
g6
sg7
S'img_02225.jpg'
p290
sa(dp291
g3
(lp292
sg5
g6
sg7
S'img_02218.jpg'
p293
sa(dp294
g3
(lp295
sg5
g6
sg7
S'img_02121.jpg'
p296
sa(dp297
g3
(lp298
sg5
g6
sg7
S'img_02113.jpg'
p299
sa(dp300
g3
(lp301
sg5
g6
sg7
S'img_02055.jpg'
p302
sa(dp303
g3
(lp304
sg5
g6
sg7
S'img_02038.jpg'
p305
sa(dp306
g3
(lp307
sg5
g6
sg7
S'img_01974.jpg'
p308
sa(dp309
g3
(lp310
sg5
g6
sg7
S'img_01959.jpg'
p311
sa(dp312
g3
(lp313
sg5
g6
sg7
S'img_01938.jpg'
p314
sa(dp315
g3
(lp316
sg5
g6
sg7
S'img_01854.jpg'
p317
sa(dp318
g3
(lp319
sg5
g6
sg7
S'img_01848.jpg'
p320
sa(dp321
g3
(lp322
sg5
g6
sg7
S'img_01840.jpg'
p323
sa(dp324
g3
(lp325
sg5
g6
sg7
S'img_01835.jpg'
p326
sa(dp327
g3
(lp328
sg5
g6
sg7
S'img_01808.jpg'
p329
sa(dp330
g3
(lp331
sg5
g6
sg7
S'img_01783.jpg'
p332
sa(dp333
g3
(lp334
sg5
g6
sg7
S'img_01721.jpg'
p335
sa(dp336
g3
(lp337
sg5
g6
sg7
S'img_01718.jpg'
p338
sa(dp339
g3
(lp340
sg5
g6
sg7
S'img_01712.jpg'
p341
sa(dp342
g3
(lp343
sg5
g6
sg7
S'img_01658.jpg'
p344
sa(dp345
g3
(lp346
sg5
g6
sg7
S'img_01535.jpg'
p347
sa(dp348
g3
(lp349
sg5
g6
sg7
S'img_01429.jpg'
p350
sa(dp351
g3
(lp352
sg5
g6
sg7
S'img_01346.jpg'
p353
sa(dp354
g3
(lp355
sg5
g6
sg7
S'img_01301.jpg'
p356
sa(dp357
g3
(lp358
sg5
g6
sg7
S'img_01270.jpg'
p359
sa(dp360
g3
(lp361
sg5
g6
sg7
S'img_01235.jpg'
p362
sa(dp363
g3
(lp364
sg5
g6
sg7
S'img_01174.jpg'
p365
sa(dp366
g3
(lp367
sg5
g6
sg7
S'img_01156.jpg'
p368
sa(dp369
g3
(lp370
sg5
g6
sg7
S'img_01087.jpg'
p371
sa(dp372
g3
(lp373
sg5
g6
sg7
S'img_01076.jpg'
p374
sa(dp375
g3
(lp376
sg5
g6
sg7
S'img_01064.jpg'
p377
sa(dp378
g3
(lp379
sg5
g6
sg7
S'img_00968.jpg'
p380
sa(dp381
g3
(lp382
sg5
g6
sg7
S'img_00803.jpg'
p383
sa(dp384
g3
(lp385
sg5
g6
sg7
S'img_00783.jpg'
p386
sa(dp387
g3
(lp388
sg5
g6
sg7
S'img_00680.jpg'
p389
sa(dp390
g3
(lp391
sg5
g6
sg7
S'img_00647.jpg'
p392
sa(dp393
g3
(lp394
sg5
g6
sg7
S'img_00506.jpg'
p395
sa(dp396
g3
(lp397
sg5
g6
sg7
S'img_00404.jpg'
p398
sa(dp399
g3
(lp400
sg5
g6
sg7
S'img_00395.jpg'
p401
sa(dp402
g3
(lp403
sg5
g6
sg7
S'img_00362.jpg'
p404
sa(dp405
g3
(lp406
sg5
g6
sg7
S'img_00298.jpg'
p407
sa(dp408
g3
(lp409
sg5
g6
sg7
S'img_00253.jpg'
p410
sa(dp411
g3
(lp412
sg5
g6
sg7
S'img_00238.jpg'
p413
sa(dp414
g3
(lp415
sg5
g6
sg7
S'img_00047.jpg'
p416
sa(dp417
g3
(lp418
sg5
g6
sg7
S'img_00014.jpg'
p419
sa(dp420
g3
(lp421
sg5
g6
sg7
S'img_07911.jpg'
p422
sa(dp423
g3
(lp424
sg5
g6
sg7
S'img_07901.jpg'
p425
sa(dp426
g3
(lp427
sg5
g6
sg7
S'img_07828.jpg'
p428
sa(dp429
g3
(lp430
sg5
g6
sg7
S'img_07759.jpg'
p431
sa(dp432
g3
(lp433
sg5
g6
sg7
S'img_07752.jpg'
p434
sa(dp435
g3
(lp436
sg5
g6
sg7
S'img_07747.jpg'
p437
sa(dp438
g3
(lp439
sg5
g6
sg7
S'img_07742.jpg'
p440
sa(dp441
g3
(lp442
sg5
g6
sg7
S'img_07731.jpg'
p443
sa(dp444
g3
(lp445
sg5
g6
sg7
S'img_07706.jpg'
p446
sa(dp447
g3
(lp448
sg5
g6
sg7
S'img_07644.jpg'
p449
sa(dp450
g3
(lp451
sg5
g6
sg7
S'img_07624.jpg'
p452
sa(dp453
g3
(lp454
sg5
g6
sg7
S'img_07609.jpg'
p455
sa(dp456
g3
(lp457
sg5
g6
sg7
S'img_07588.jpg'
p458
sa(dp459
g3
(lp460
sg5
g6
sg7
S'img_07571.jpg'
p461
sa(dp462
g3
(lp463
sg5
g6
sg7
S'img_07555.jpg'
p464
sa(dp465
g3
(lp466
sg5
g6
sg7
S'img_07535.jpg'
p467
sa(dp468
g3
(lp469
sg5
g6
sg7
S'img_07513.jpg'
p470
sa(dp471
g3
(lp472
sg5
g6
sg7
S'img_07510.jpg'
p473
sa(dp474
g3
(lp475
sg5
g6
sg7
S'img_07462.jpg'
p476
sa(dp477
g3
(lp478
sg5
g6
sg7
S'img_07400.jpg'
p479
sa(dp480
g3
(lp481
sg5
g6
sg7
S'img_07395.jpg'
p482
sa(dp483
g3
(lp484
sg5
g6
sg7
S'img_07383.jpg'
p485
sa(dp486
g3
(lp487
sg5
g6
sg7
S'img_07369.jpg'
p488
sa(dp489
g3
(lp490
sg5
g6
sg7
S'img_07340.jpg'
p491
sa(dp492
g3
(lp493
sg5
g6
sg7
S'img_07309.jpg'
p494
sa(dp495
g3
(lp496
sg5
g6
sg7
S'img_07290.jpg'
p497
sa(dp498
g3
(lp499
sg5
g6
sg7
S'img_07287.jpg'
p500
sa(dp501
g3
(lp502
sg5
g6
sg7
S'img_07275.jpg'
p503
sa(dp504
g3
(lp505
sg5
g6
sg7
S'img_07273.jpg'
p506
sa(dp507
g3
(lp508
sg5
g6
sg7
S'img_07217.jpg'
p509
sa(dp510
g3
(lp511
sg5
g6
sg7
S'img_07208.jpg'
p512
sa(dp513
g3
(lp514
sg5
g6
sg7
S'img_07130.jpg'
p515
sa(dp516
g3
(lp517
sg5
g6
sg7
S'img_07119.jpg'
p518
sa(dp519
g3
(lp520
sg5
g6
sg7
S'img_07109.jpg'
p521
sa(dp522
g3
(lp523
sg5
g6
sg7
S'img_07107.jpg'
p524
sa(dp525
g3
(lp526
sg5
g6
sg7
S'img_07067.jpg'
p527
sa(dp528
g3
(lp529
sg5
g6
sg7
S'img_07055.jpg'
p530
sa(dp531
g3
(lp532
sg5
g6
sg7
S'img_07025.jpg'
p533
sa(dp534
g3
(lp535
sg5
g6
sg7
S'img_07024.jpg'
p536
sa(dp537
g3
(lp538
sg5
g6
sg7
S'img_07017.jpg'
p539
sa(dp540
g3
(lp541
sg5
g6
sg7
S'img_06971.jpg'
p542
sa(dp543
g3
(lp544
sg5
g6
sg7
S'img_06920.jpg'
p545
sa(dp546
g3
(lp547
sg5
g6
sg7
S'img_06919.jpg'
p548
sa(dp549
g3
(lp550
sg5
g6
sg7
S'img_06858.jpg'
p551
sa(dp552
g3
(lp553
sg5
g6
sg7
S'img_06841.jpg'
p554
sa(dp555
g3
(lp556
sg5
g6
sg7
S'img_06824.jpg'
p557
sa(dp558
g3
(lp559
sg5
g6
sg7
S'img_06822.jpg'
p560
sa(dp561
g3
(lp562
sg5
g6
sg7
S'img_06819.jpg'
p563
sa(dp564
g3
(lp565
sg5
g6
sg7
S'img_06771.jpg'
p566
sa(dp567
g3
(lp568
sg5
g6
sg7
S'img_06769.jpg'
p569
sa(dp570
g3
(lp571
sg5
g6
sg7
S'img_06763.jpg'
p572
sa(dp573
g3
(lp574
sg5
g6
sg7
S'img_06729.jpg'
p575
sa(dp576
g3
(lp577
sg5
g6
sg7
S'img_06666.jpg'
p578
sa(dp579
g3
(lp580
sg5
g6
sg7
S'img_06592.jpg'
p581
sa(dp582
g3
(lp583
sg5
g6
sg7
S'img_06586.jpg'
p584
sa(dp585
g3
(lp586
sg5
g6
sg7
S'img_06576.jpg'
p587
sa(dp588
g3
(lp589
sg5
g6
sg7
S'img_06567.jpg'
p590
sa(dp591
g3
(lp592
sg5
g6
sg7
S'img_06550.jpg'
p593
sa(dp594
g3
(lp595
sg5
g6
sg7
S'img_06535.jpg'
p596
sa(dp597
g3
(lp598
sg5
g6
sg7
S'img_06502.jpg'
p599
sa(dp600
g3
(lp601
sg5
g6
sg7
S'img_06500.jpg'
p602
sa(dp603
g3
(lp604
sg5
g6
sg7
S'img_06487.jpg'
p605
sa(dp606
g3
(lp607
sg5
g6
sg7
S'img_06481.jpg'
p608
sa(dp609
g3
(lp610
sg5
g6
sg7
S'img_06452.jpg'
p611
sa(dp612
g3
(lp613
sg5
g6
sg7
S'img_06428.jpg'
p614
sa(dp615
g3
(lp616
sg5
g6
sg7
S'img_06418.jpg'
p617
sa(dp618
g3
(lp619
sg5
g6
sg7
S'img_06417.jpg'
p620
sa(dp621
g3
(lp622
sg5
g6
sg7
S'img_06415.jpg'
p623
sa(dp624
g3
(lp625
sg5
g6
sg7
S'img_06395.jpg'
p626
sa(dp627
g3
(lp628
sg5
g6
sg7
S'img_06374.jpg'
p629
sa(dp630
g3
(lp631
sg5
g6
sg7
S'img_06339.jpg'
p632
sa(dp633
g3
(lp634
sg5
g6
sg7
S'img_06323.jpg'
p635
sa(dp636
g3
(lp637
sg5
g6
sg7
S'img_06304.jpg'
p638
sa(dp639
g3
(lp640
sg5
g6
sg7
S'img_06289.jpg'
p641
sa(dp642
g3
(lp643
sg5
g6
sg7
S'img_06271.jpg'
p644
sa(dp645
g3
(lp646
sg5
g6
sg7
S'img_06234.jpg'
p647
sa(dp648
g3
(lp649
sg5
g6
sg7
S'img_06226.jpg'
p650
sa(dp651
g3
(lp652
sg5
g6
sg7
S'img_06198.jpg'
p653
sa(dp654
g3
(lp655
sg5
g6
sg7
S'img_06196.jpg'
p656
sa(dp657
g3
(lp658
sg5
g6
sg7
S'img_06171.jpg'
p659
sa(dp660
g3
(lp661
sg5
g6
sg7
S'img_06156.jpg'
p662
sa(dp663
g3
(lp664
sg5
g6
sg7
S'img_06154.jpg'
p665
sa(dp666
g3
(lp667
sg5
g6
sg7
S'img_06152.jpg'
p668
sa(dp669
g3
(lp670
sg5
g6
sg7
S'img_06145.jpg'
p671
sa(dp672
g3
(lp673
sg5
g6
sg7
S'img_06138.jpg'
p674
sa(dp675
g3
(lp676
sg5
g6
sg7
S'img_06132.jpg'
p677
sa(dp678
g3
(lp679
sg5
g6
sg7
S'img_06094.jpg'
p680
sa(dp681
g3
(lp682
sg5
g6
sg7
S'img_06092.jpg'
p683
sa(dp684
g3
(lp685
sg5
g6
sg7
S'img_06072.jpg'
p686
sa(dp687
g3
(lp688
sg5
g6
sg7
S'img_06054.jpg'
p689
sa(dp690
g3
(lp691
sg5
g6
sg7
S'img_06053.jpg'
p692
sa(dp693
g3
(lp694
sg5
g6
sg7
S'img_06027.jpg'
p695
sa(dp696
g3
(lp697
sg5
g6
sg7
S'img_05975.jpg'
p698
sa(dp699
g3
(lp700
sg5
g6
sg7
S'img_05965.jpg'
p701
sa(dp702
g3
(lp703
sg5
g6
sg7
S'img_05913.jpg'
p704
sa(dp705
g3
(lp706
sg5
g6
sg7
S'img_05892.jpg'
p707
sa(dp708
g3
(lp709
sg5
g6
sg7
S'img_05837.jpg'
p710
sa(dp711
g3
(lp712
sg5
g6
sg7
S'img_05781.jpg'
p713
sa(dp714
g3
(lp715
sg5
g6
sg7
S'img_05774.jpg'
p716
sa(dp717
g3
(lp718
sg5
g6
sg7
S'img_05737.jpg'
p719
sa(dp720
g3
(lp721
sg5
g6
sg7
S'img_05676.jpg'
p722
sa(dp723
g3
(lp724
sg5
g6
sg7
S'img_05656.jpg'
p725
sa(dp726
g3
(lp727
sg5
g6
sg7
S'img_05633.jpg'
p728
sa(dp729
g3
(lp730
sg5
g6
sg7
S'img_05632.jpg'
p731
sa(dp732
g3
(lp733
sg5
g6
sg7
S'img_05628.jpg'
p734
sa(dp735
g3
(lp736
sg5
g6
sg7
S'img_05617.jpg'
p737
sa(dp738
g3
(lp739
sg5
g6
sg7
S'img_05574.jpg'
p740
sa(dp741
g3
(lp742
sg5
g6
sg7
S'img_05506.jpg'
p743
sa(dp744
g3
(lp745
sg5
g6
sg7
S'img_05460.jpg'
p746
sa(dp747
g3
(lp748
sg5
g6
sg7
S'img_05417.jpg'
p749
sa(dp750
g3
(lp751
sg5
g6
sg7
S'img_05414.jpg'
p752
sa(dp753
g3
(lp754
sg5
g6
sg7
S'img_05400.jpg'
p755
sa(dp756
g3
(lp757
sg5
g6
sg7
S'img_05395.jpg'
p758
sa(dp759
g3
(lp760
sg5
g6
sg7
S'img_05380.jpg'
p761
sa(dp762
g3
(lp763
sg5
g6
sg7
S'img_05333.jpg'
p764
sa(dp765
g3
(lp766
sg5
g6
sg7
S'img_05323.jpg'
p767
sa(dp768
g3
(lp769
sg5
g6
sg7
S'img_05302.jpg'
p770
sa(dp771
g3
(lp772
sg5
g6
sg7
S'img_05280.jpg'
p773
sa(dp774
g3
(lp775
sg5
g6
sg7
S'img_05245.jpg'
p776
sa(dp777
g3
(lp778
sg5
g6
sg7
S'img_05183.jpg'
p779
sa(dp780
g3
(lp781
sg5
g6
sg7
S'img_05171.jpg'
p782
sa(dp783
g3
(lp784
sg5
g6
sg7
S'img_05122.jpg'
p785
sa(dp786
g3
(lp787
sg5
g6
sg7
S'img_05116.jpg'
p788
sa(dp789
g3
(lp790
sg5
g6
sg7
S'img_05108.jpg'
p791
sa(dp792
g3
(lp793
sg5
g6
sg7
S'img_05102.jpg'
p794
sa(dp795
g3
(lp796
sg5
g6
sg7
S'img_05097.jpg'
p797
sa(dp798
g3
(lp799
sg5
g6
sg7
S'img_05088.jpg'
p800
sa(dp801
g3
(lp802
sg5
g6
sg7
S'img_05066.jpg'
p803
sa(dp804
g3
(lp805
sg5
g6
sg7
S'img_05060.jpg'
p806
sa(dp807
g3
(lp808
sg5
g6
sg7
S'img_05036.jpg'
p809
sa(dp810
g3
(lp811
sg5
g6
sg7
S'img_05024.jpg'
p812
sa(dp813
g3
(lp814
sg5
g6
sg7
S'img_04977.jpg'
p815
sa(dp816
g3
(lp817
sg5
g6
sg7
S'img_04947.jpg'
p818
sa(dp819
g3
(lp820
sg5
g6
sg7
S'img_04942.jpg'
p821
sa(dp822
g3
(lp823
sg5
g6
sg7
S'img_04933.jpg'
p824
sa(dp825
g3
(lp826
sg5
g6
sg7
S'img_04918.jpg'
p827
sa(dp828
g3
(lp829
sg5
g6
sg7
S'img_04912.jpg'
p830
sa(dp831
g3
(lp832
sg5
g6
sg7
S'img_04868.jpg'
p833
sa(dp834
g3
(lp835
sg5
g6
sg7
S'img_04859.jpg'
p836
sa(dp837
g3
(lp838
sg5
g6
sg7
S'img_04817.jpg'
p839
sa(dp840
g3
(lp841
sg5
g6
sg7
S'img_04801.jpg'
p842
sa(dp843
g3
(lp844
sg5
g6
sg7
S'img_04768.jpg'
p845
sa(dp846
g3
(lp847
sg5
g6
sg7
S'img_04759.jpg'
p848
sa(dp849
g3
(lp850
sg5
g6
sg7
S'img_04756.jpg'
p851
sa(dp852
g3
(lp853
sg5
g6
sg7
S'img_04738.jpg'
p854
sa(dp855
g3
(lp856
sg5
g6
sg7
S'img_04730.jpg'
p857
sa(dp858
g3
(lp859
sg5
g6
sg7
S'img_04698.jpg'
p860
sa(dp861
g3
(lp862
sg5
g6
sg7
S'img_04646.jpg'
p863
sa(dp864
g3
(lp865
sg5
g6
sg7
S'img_04627.jpg'
p866
sa(dp867
g3
(lp868
sg5
g6
sg7
S'img_04626.jpg'
p869
sa(dp870
g3
(lp871
sg5
g6
sg7
S'img_04591.jpg'
p872
sa(dp873
g3
(lp874
sg5
g6
sg7
S'img_04573.jpg'
p875
sa(dp876
g3
(lp877
sg5
g6
sg7
S'img_04558.jpg'
p878
sa(dp879
g3
(lp880
sg5
g6
sg7
S'img_04533.jpg'
p881
sa(dp882
g3
(lp883
sg5
g6
sg7
S'img_04488.jpg'
p884
sa(dp885
g3
(lp886
sg5
g6
sg7
S'img_04473.jpg'
p887
sa(dp888
g3
(lp889
sg5
g6
sg7
S'img_04444.jpg'
p890
sa(dp891
g3
(lp892
sg5
g6
sg7
S'img_04392.jpg'
p893
sa(dp894
g3
(lp895
sg5
g6
sg7
S'img_04381.jpg'
p896
sa(dp897
g3
(lp898
sg5
g6
sg7
S'img_04373.jpg'
p899
sa(dp900
g3
(lp901
sg5
g6
sg7
S'img_04367.jpg'
p902
sa(dp903
g3
(lp904
sg5
g6
sg7
S'img_04364.jpg'
p905
sa(dp906
g3
(lp907
sg5
g6
sg7
S'img_04331.jpg'
p908
sa(dp909
g3
(lp910
sg5
g6
sg7
S'img_04302.jpg'
p911
sa(dp912
g3
(lp913
sg5
g6
sg7
S'img_04292.jpg'
p914
sa(dp915
g3
(lp916
sg5
g6
sg7
S'img_04280.jpg'
p917
sa(dp918
g3
(lp919
sg5
g6
sg7
S'img_04273.jpg'
p920
sa(dp921
g3
(lp922
sg5
g6
sg7
S'img_04267.jpg'
p923
sa(dp924
g3
(lp925
sg5
g6
sg7
S'img_04241.jpg'
p926
sa(dp927
g3
(lp928
sg5
g6
sg7
S'img_04236.jpg'
p929
sa(dp930
g3
(lp931
sg5
g6
sg7
S'img_04217.jpg'
p932
sa(dp933
g3
(lp934
sg5
g6
sg7
S'img_04120.jpg'
p935
sa(dp936
g3
(lp937
sg5
g6
sg7
S'img_04113.jpg'
p938
sa(dp939
g3
(lp940
sg5
g6
sg7
S'img_04097.jpg'
p941
sa(dp942
g3
(lp943
sg5
g6
sg7
S'img_04083.jpg'
p944
sa(dp945
g3
(lp946
sg5
g6
sg7
S'img_04082.jpg'
p947
sa(dp948
g3
(lp949
sg5
g6
sg7
S'img_04049.jpg'
p950
sa(dp951
g3
(lp952
sg5
g6
sg7
S'img_04041.jpg'
p953
sa(dp954
g3
(lp955
sg5
g6
sg7
S'img_04021.jpg'
p956
sa(dp957
g3
(lp958
sg5
g6
sg7
S'img_03999.jpg'
p959
sa(dp960
g3
(lp961
sg5
g6
sg7
S'img_03950.jpg'
p962
sa(dp963
g3
(lp964
sg5
g6
sg7
S'img_03948.jpg'
p965
sa(dp966
g3
(lp967
sg5
g6
sg7
S'img_03947.jpg'
p968
sa(dp969
g3
(lp970
sg5
g6
sg7
S'img_03938.jpg'
p971
sa(dp972
g3
(lp973
sg5
g6
sg7
S'img_03921.jpg'
p974
sa(dp975
g3
(lp976
sg5
g6
sg7
S'img_03911.jpg'
p977
sa(dp978
g3
(lp979
sg5
g6
sg7
S'img_03856.jpg'
p980
sa(dp981
g3
(lp982
sg5
g6
sg7
S'img_03819.jpg'
p983
sa(dp984
g3
(lp985
sg5
g6
sg7
S'img_03787.jpg'
p986
sa(dp987
g3
(lp988
sg5
g6
sg7
S'img_03782.jpg'
p989
sa(dp990
g3
(lp991
sg5
g6
sg7
S'img_03756.jpg'
p992
sa(dp993
g3
(lp994
sg5
g6
sg7
S'img_03721.jpg'
p995
sa(dp996
g3
(lp997
sg5
g6
sg7
S'img_03710.jpg'
p998
sa(dp999
g3
(lp1000
sg5
g6
sg7
S'img_03675.jpg'
p1001
sa(dp1002
g3
(lp1003
sg5
g6
sg7
S'img_03668.jpg'
p1004
sa(dp1005
g3
(lp1006
sg5
g6
sg7
S'img_03657.jpg'
p1007
sa(dp1008
g3
(lp1009
sg5
g6
sg7
S'img_03622.jpg'
p1010
sa(dp1011
g3
(lp1012
sg5
g6
sg7
S'img_03607.jpg'
p1013
sa(dp1014
g3
(lp1015
sg5
g6
sg7
S'img_03604.jpg'
p1016
sa(dp1017
g3
(lp1018
sg5
g6
sg7
S'img_03585.jpg'
p1019
sa(dp1020
g3
(lp1021
sg5
g6
sg7
S'img_03567.jpg'
p1022
sa(dp1023
g3
(lp1024
sg5
g6
sg7
S'img_03560.jpg'
p1025
sa(dp1026
g3
(lp1027
sg5
g6
sg7
S'img_03541.jpg'
p1028
sa(dp1029
g3
(lp1030
sg5
g6
sg7
S'img_03540.jpg'
p1031
sa(dp1032
g3
(lp1033
sg5
g6
sg7
S'img_03514.jpg'
p1034
sa(dp1035
g3
(lp1036
sg5
g6
sg7
S'img_03505.jpg'
p1037
sa(dp1038
g3
(lp1039
sg5
g6
sg7
S'img_03485.jpg'
p1040
sa(dp1041
g3
(lp1042
sg5
g6
sg7
S'img_03477.jpg'
p1043
sa(dp1044
g3
(lp1045
sg5
g6
sg7
S'img_03460.jpg'
p1046
sa(dp1047
g3
(lp1048
sg5
g6
sg7
S'img_03396.jpg'
p1049
sa(dp1050
g3
(lp1051
sg5
g6
sg7
S'img_03388.jpg'
p1052
sa(dp1053
g3
(lp1054
sg5
g6
sg7
S'img_03372.jpg'
p1055
sa(dp1056
g3
(lp1057
sg5
g6
sg7
S'img_03325.jpg'
p1058
sa(dp1059
g3
(lp1060
sg5
g6
sg7
S'img_03313.jpg'
p1061
sa(dp1062
g3
(lp1063
sg5
g6
sg7
S'img_03278.jpg'
p1064
sa(dp1065
g3
(lp1066
sg5
g6
sg7
S'img_03276.jpg'
p1067
sa(dp1068
g3
(lp1069
sg5
g6
sg7
S'img_03266.jpg'
p1070
sa(dp1071
g3
(lp1072
sg5
g6
sg7
S'img_03242.jpg'
p1073
sa(dp1074
g3
(lp1075
sg5
g6
sg7
S'img_03217.jpg'
p1076
sa(dp1077
g3
(lp1078
sg5
g6
sg7
S'img_03211.jpg'
p1079
sa(dp1080
g3
(lp1081
sg5
g6
sg7
S'img_03196.jpg'
p1082
sa(dp1083
g3
(lp1084
sg5
g6
sg7
S'img_03189.jpg'
p1085
sa(dp1086
g3
(lp1087
sg5
g6
sg7
S'img_03160.jpg'
p1088
sa(dp1089
g3
(lp1090
sg5
g6
sg7
S'img_03157.jpg'
p1091
sa(dp1092
g3
(lp1093
sg5
g6
sg7
S'img_03136.jpg'
p1094
sa(dp1095
g3
(lp1096
sg5
g6
sg7
S'img_03127.jpg'
p1097
sa(dp1098
g3
(lp1099
sg5
g6
sg7
S'img_03121.jpg'
p1100
sa(dp1101
g3
(lp1102
sg5
g6
sg7
S'img_03101.jpg'
p1103
sa(dp1104
g3
(lp1105
sg5
g6
sg7
S'img_03100.jpg'
p1106
sa(dp1107
g3
(lp1108
sg5
g6
sg7
S'img_03094.jpg'
p1109
sa(dp1110
g3
(lp1111
sg5
g6
sg7
S'img_03086.jpg'
p1112
sa(dp1113
g3
(lp1114
sg5
g6
sg7
S'img_03081.jpg'
p1115
sa(dp1116
g3
(lp1117
sg5
g6
sg7
S'img_03063.jpg'
p1118
sa(dp1119
g3
(lp1120
sg5
g6
sg7
S'img_03062.jpg'
p1121
sa(dp1122
g3
(lp1123
sg5
g6
sg7
S'img_03046.jpg'
p1124
sa(dp1125
g3
(lp1126
sg5
g6
sg7
S'img_03035.jpg'
p1127
sa(dp1128
g3
(lp1129
sg5
g6
sg7
S'img_03015.jpg'
p1130
sa(dp1131
g3
(lp1132
sg5
g6
sg7
S'img_03004.jpg'
p1133
sa(dp1134
g3
(lp1135
sg5
g6
sg7
S'img_02986.jpg'
p1136
sa(dp1137
g3
(lp1138
sg5
g6
sg7
S'img_02962.jpg'
p1139
sa(dp1140
g3
(lp1141
sg5
g6
sg7
S'img_02958.jpg'
p1142
sa(dp1143
g3
(lp1144
sg5
g6
sg7
S'img_02934.jpg'
p1145
sa(dp1146
g3
(lp1147
sg5
g6
sg7
S'img_02919.jpg'
p1148
sa(dp1149
g3
(lp1150
sg5
g6
sg7
S'img_02918.jpg'
p1151
sa(dp1152
g3
(lp1153
sg5
g6
sg7
S'img_02917.jpg'
p1154
sa(dp1155
g3
(lp1156
sg5
g6
sg7
S'img_02897.jpg'
p1157
sa(dp1158
g3
(lp1159
sg5
g6
sg7
S'img_02863.jpg'
p1160
sa(dp1161
g3
(lp1162
sg5
g6
sg7
S'img_02853.jpg'
p1163
sa(dp1164
g3
(lp1165
sg5
g6
sg7
S'img_02846.jpg'
p1166
sa(dp1167
g3
(lp1168
sg5
g6
sg7
S'img_02806.jpg'
p1169
sa(dp1170
g3
(lp1171
sg5
g6
sg7
S'img_02756.jpg'
p1172
sa(dp1173
g3
(lp1174
sg5
g6
sg7
S'img_02748.jpg'
p1175
sa(dp1176
g3
(lp1177
sg5
g6
sg7
S'img_02730.jpg'
p1178
sa(dp1179
g3
(lp1180
sg5
g6
sg7
S'img_02727.jpg'
p1181
sa(dp1182
g3
(lp1183
sg5
g6
sg7
S'img_02713.jpg'
p1184
sa(dp1185
g3
(lp1186
sg5
g6
sg7
S'img_02712.jpg'
p1187
sa(dp1188
g3
(lp1189
sg5
g6
sg7
S'img_02707.jpg'
p1190
sa(dp1191
g3
(lp1192
sg5
g6
sg7
S'img_02673.jpg'
p1193
sa(dp1194
g3
(lp1195
sg5
g6
sg7
S'img_02652.jpg'
p1196
sa(dp1197
g3
(lp1198
sg5
g6
sg7
S'img_02642.jpg'
p1199
sa(dp1200
g3
(lp1201
sg5
g6
sg7
S'img_02626.jpg'
p1202
sa(dp1203
g3
(lp1204
sg5
g6
sg7
S'img_02597.jpg'
p1205
sa(dp1206
g3
(lp1207
sg5
g6
sg7
S'img_02592.jpg'
p1208
sa(dp1209
g3
(lp1210
sg5
g6
sg7
S'img_02585.jpg'
p1211
sa(dp1212
g3
(lp1213
sg5
g6
sg7
S'img_02579.jpg'
p1214
sa(dp1215
g3
(lp1216
sg5
g6
sg7
S'img_02559.jpg'
p1217
sa(dp1218
g3
(lp1219
sg5
g6
sg7
S'img_02525.jpg'
p1220
sa(dp1221
g3
(lp1222
sg5
g6
sg7
S'img_02515.jpg'
p1223
sa(dp1224
g3
(lp1225
sg5
g6
sg7
S'img_02500.jpg'
p1226
sa(dp1227
g3
(lp1228
sg5
g6
sg7
S'img_02485.jpg'
p1229
sa(dp1230
g3
(lp1231
sg5
g6
sg7
S'img_02463.jpg'
p1232
sa(dp1233
g3
(lp1234
sg5
g6
sg7
S'img_02450.jpg'
p1235
sa(dp1236
g3
(lp1237
sg5
g6
sg7
S'img_02387.jpg'
p1238
sa(dp1239
g3
(lp1240
sg5
g6
sg7
S'img_02371.jpg'
p1241
sa(dp1242
g3
(lp1243
sg5
g6
sg7
S'img_02368.jpg'
p1244
sa(dp1245
g3
(lp1246
sg5
g6
sg7
S'img_02365.jpg'
p1247
sa(dp1248
g3
(lp1249
sg5
g6
sg7
S'img_02364.jpg'
p1250
sa(dp1251
g3
(lp1252
sg5
g6
sg7
S'img_02308.jpg'
p1253
sa(dp1254
g3
(lp1255
sg5
g6
sg7
S'img_02295.jpg'
p1256
sa(dp1257
g3
(lp1258
sg5
g6
sg7
S'img_02278.jpg'
p1259
sa(dp1260
g3
(lp1261
sg5
g6
sg7
S'img_02247.jpg'
p1262
sa(dp1263
g3
(lp1264
sg5
g6
sg7
S'img_02220.jpg'
p1265
sa(dp1266
g3
(lp1267
sg5
g6
sg7
S'img_02219.jpg'
p1268
sa(dp1269
g3
(lp1270
sg5
g6
sg7
S'img_02199.jpg'
p1271
sa(dp1272
g3
(lp1273
sg5
g6
sg7
S'img_02173.jpg'
p1274
sa(dp1275
g3
(lp1276
sg5
g6
sg7
S'img_02165.jpg'
p1277
sa(dp1278
g3
(lp1279
sg5
g6
sg7
S'img_02150.jpg'
p1280
sa(dp1281
g3
(lp1282
sg5
g6
sg7
S'img_02149.jpg'
p1283
sa(dp1284
g3
(lp1285
sg5
g6
sg7
S'img_02111.jpg'
p1286
sa(dp1287
g3
(lp1288
sg5
g6
sg7
S'img_02075.jpg'
p1289
sa(dp1290
g3
(lp1291
sg5
g6
sg7
S'img_02067.jpg'
p1292
sa(dp1293
g3
(lp1294
sg5
g6
sg7
S'img_02014.jpg'
p1295
sa(dp1296
g3
(lp1297
sg5
g6
sg7
S'img_01973.jpg'
p1298
sa(dp1299
g3
(lp1300
sg5
g6
sg7
S'img_01898.jpg'
p1301
sa(dp1302
g3
(lp1303
sg5
g6
sg7
S'img_01876.jpg'
p1304
sa(dp1305
g3
(lp1306
sg5
g6
sg7
S'img_01861.jpg'
p1307
sa(dp1308
g3
(lp1309
sg5
g6
sg7
S'img_01842.jpg'
p1310
sa(dp1311
g3
(lp1312
sg5
g6
sg7
S'img_01829.jpg'
p1313
sa(dp1314
g3
(lp1315
sg5
g6
sg7
S'img_01784.jpg'
p1316
sa(dp1317
g3
(lp1318
sg5
g6
sg7
S'img_01769.jpg'
p1319
sa(dp1320
g3
(lp1321
sg5
g6
sg7
S'img_01767.jpg'
p1322
sa(dp1323
g3
(lp1324
sg5
g6
sg7
S'img_01749.jpg'
p1325
sa(dp1326
g3
(lp1327
sg5
g6
sg7
S'img_01742.jpg'
p1328
sa(dp1329
g3
(lp1330
sg5
g6
sg7
S'img_01727.jpg'
p1331
sa(dp1332
g3
(lp1333
sg5
g6
sg7
S'img_01700.jpg'
p1334
sa(dp1335
g3
(lp1336
sg5
g6
sg7
S'img_01634.jpg'
p1337
sa(dp1338
g3
(lp1339
sg5
g6
sg7
S'img_01625.jpg'
p1340
sa(dp1341
g3
(lp1342
sg5
g6
sg7
S'img_01623.jpg'
p1343
sa(dp1344
g3
(lp1345
sg5
g6
sg7
S'img_01610.jpg'
p1346
sa(dp1347
g3
(lp1348
sg5
g6
sg7
S'img_01606.jpg'
p1349
sa(dp1350
g3
(lp1351
sg5
g6
sg7
S'img_01539.jpg'
p1352
sa(dp1353
g3
(lp1354
sg5
g6
sg7
S'img_01532.jpg'
p1355
sa(dp1356
g3
(lp1357
sg5
g6
sg7
S'img_01521.jpg'
p1358
sa(dp1359
g3
(lp1360
sg5
g6
sg7
S'img_01498.jpg'
p1361
sa(dp1362
g3
(lp1363
sg5
g6
sg7
S'img_01492.jpg'
p1364
sa(dp1365
g3
(lp1366
sg5
g6
sg7
S'img_01472.jpg'
p1367
sa(dp1368
g3
(lp1369
sg5
g6
sg7
S'img_01469.jpg'
p1370
sa(dp1371
g3
(lp1372
sg5
g6
sg7
S'img_01456.jpg'
p1373
sa(dp1374
g3
(lp1375
sg5
g6
sg7
S'img_01410.jpg'
p1376
sa(dp1377
g3
(lp1378
sg5
g6
sg7
S'img_01380.jpg'
p1379
sa(dp1380
g3
(lp1381
sg5
g6
sg7
S'img_01375.jpg'
p1382
sa(dp1383
g3
(lp1384
sg5
g6
sg7
S'img_01370.jpg'
p1385
sa(dp1386
g3
(lp1387
sg5
g6
sg7
S'img_01358.jpg'
p1388
sa(dp1389
g3
(lp1390
sg5
g6
sg7
S'img_01340.jpg'
p1391
sa(dp1392
g3
(lp1393
sg5
g6
sg7
S'img_01335.jpg'
p1394
sa(dp1395
g3
(lp1396
sg5
g6
sg7
S'img_01329.jpg'
p1397
sa(dp1398
g3
(lp1399
sg5
g6
sg7
S'img_01323.jpg'
p1400
sa(dp1401
g3
(lp1402
sg5
g6
sg7
S'img_01308.jpg'
p1403
sa(dp1404
g3
(lp1405
sg5
g6
sg7
S'img_01292.jpg'
p1406
sa(dp1407
g3
(lp1408
sg5
g6
sg7
S'img_01254.jpg'
p1409
sa(dp1410
g3
(lp1411
sg5
g6
sg7
S'img_01241.jpg'
p1412
sa(dp1413
g3
(lp1414
sg5
g6
sg7
S'img_01217.jpg'
p1415
sa(dp1416
g3
(lp1417
sg5
g6
sg7
S'img_01199.jpg'
p1418
sa(dp1419
g3
(lp1420
sg5
g6
sg7
S'img_01190.jpg'
p1421
sa(dp1422
g3
(lp1423
sg5
g6
sg7
S'img_01189.jpg'
p1424
sa(dp1425
g3
(lp1426
sg5
g6
sg7
S'img_01007.jpg'
p1427
sa(dp1428
g3
(lp1429
sg5
g6
sg7
S'img_00997.jpg'
p1430
sa(dp1431
g3
(lp1432
sg5
g6
sg7
S'img_00969.jpg'
p1433
sa(dp1434
g3
(lp1435
sg5
g6
sg7
S'img_00945.jpg'
p1436
sa(dp1437
g3
(lp1438
sg5
g6
sg7
S'img_00900.jpg'
p1439
sa(dp1440
g3
(lp1441
sg5
g6
sg7
S'img_00896.jpg'
p1442
sa(dp1443
g3
(lp1444
sg5
g6
sg7
S'img_00891.jpg'
p1445
sa(dp1446
g3
(lp1447
sg5
g6
sg7
S'img_00890.jpg'
p1448
sa(dp1449
g3
(lp1450
sg5
g6
sg7
S'img_00827.jpg'
p1451
sa(dp1452
g3
(lp1453
sg5
g6
sg7
S'img_00807.jpg'
p1454
sa(dp1455
g3
(lp1456
sg5
g6
sg7
S'img_00801.jpg'
p1457
sa(dp1458
g3
(lp1459
sg5
g6
sg7
S'img_00796.jpg'
p1460
sa(dp1461
g3
(lp1462
sg5
g6
sg7
S'img_00769.jpg'
p1463
sa(dp1464
g3
(lp1465
sg5
g6
sg7
S'img_00752.jpg'
p1466
sa(dp1467
g3
(lp1468
sg5
g6
sg7
S'img_00743.jpg'
p1469
sa(dp1470
g3
(lp1471
sg5
g6
sg7
S'img_00739.jpg'
p1472
sa(dp1473
g3
(lp1474
sg5
g6
sg7
S'img_00696.jpg'
p1475
sa(dp1476
g3
(lp1477
sg5
g6
sg7
S'img_00694.jpg'
p1478
sa(dp1479
g3
(lp1480
sg5
g6
sg7
S'img_00677.jpg'
p1481
sa(dp1482
g3
(lp1483
sg5
g6
sg7
S'img_00641.jpg'
p1484
sa(dp1485
g3
(lp1486
sg5
g6
sg7
S'img_00573.jpg'
p1487
sa(dp1488
g3
(lp1489
sg5
g6
sg7
S'img_00572.jpg'
p1490
sa(dp1491
g3
(lp1492
sg5
g6
sg7
S'img_00566.jpg'
p1493
sa(dp1494
g3
(lp1495
sg5
g6
sg7
S'img_00539.jpg'
p1496
sa(dp1497
g3
(lp1498
sg5
g6
sg7
S'img_00536.jpg'
p1499
sa(dp1500
g3
(lp1501
sg5
g6
sg7
S'img_00522.jpg'
p1502
sa(dp1503
g3
(lp1504
sg5
g6
sg7
S'img_00501.jpg'
p1505
sa(dp1506
g3
(lp1507
sg5
g6
sg7
S'img_00470.jpg'
p1508
sa(dp1509
g3
(lp1510
sg5
g6
sg7
S'img_00439.jpg'
p1511
sa(dp1512
g3
(lp1513
sg5
g6
sg7
S'img_00437.jpg'
p1514
sa(dp1515
g3
(lp1516
sg5
g6
sg7
S'img_00378.jpg'
p1517
sa(dp1518
g3
(lp1519
sg5
g6
sg7
S'img_00370.jpg'
p1520
sa(dp1521
g3
(lp1522
sg5
g6
sg7
S'img_00313.jpg'
p1523
sa(dp1524
g3
(lp1525
sg5
g6
sg7
S'img_00312.jpg'
p1526
sa(dp1527
g3
(lp1528
sg5
g6
sg7
S'img_00284.jpg'
p1529
sa(dp1530
g3
(lp1531
sg5
g6
sg7
S'img_00279.jpg'
p1532
sa(dp1533
g3
(lp1534
sg5
g6
sg7
S'img_00276.jpg'
p1535
sa(dp1536
g3
(lp1537
sg5
g6
sg7
S'img_00250.jpg'
p1538
sa(dp1539
g3
(lp1540
sg5
g6
sg7
S'img_00221.jpg'
p1541
sa(dp1542
g3
(lp1543
sg5
g6
sg7
S'img_00217.jpg'
p1544
sa(dp1545
g3
(lp1546
sg5
g6
sg7
S'img_00214.jpg'
p1547
sa(dp1548
g3
(lp1549
sg5
g6
sg7
S'img_00194.jpg'
p1550
sa(dp1551
g3
(lp1552
sg5
g6
sg7
S'img_00184.jpg'
p1553
sa(dp1554
g3
(lp1555
sg5
g6
sg7
S'img_00139.jpg'
p1556
sa(dp1557
g3
(lp1558
sg5
g6
sg7
S'img_00137.jpg'
p1559
sa(dp1560
g3
(lp1561
sg5
g6
sg7
S'img_00118.jpg'
p1562
sa(dp1563
g3
(lp1564
sg5
g6
sg7
S'img_00116.jpg'
p1565
sa(dp1566
g3
(lp1567
sg5
g6
sg7
S'img_00114.jpg'
p1568
sa(dp1569
g3
(lp1570
sg5
g6
sg7
S'img_00093.jpg'
p1571
sa(dp1572
g3
(lp1573
sg5
g6
sg7
S'img_00069.jpg'
p1574
sa(dp1575
g3
(lp1576
sg5
g6
sg7
S'img_00061.jpg'
p1577
sa(dp1578
g3
(lp1579
sg5
g6
sg7
S'img_00021.jpg'
p1580
sa(dp1581
g3
(lp1582
sg5
g6
sg7
S'img_00004.jpg'
p1583
sa(dp1584
g3
(lp1585
sg5
g6
sg7
S'img_07854.jpg'
p1586
sa(dp1587
g3
(lp1588
sg5
g6
sg7
S'img_07853.jpg'
p1589
sa(dp1590
g3
(lp1591
sg5
g6
sg7
S'img_07852.jpg'
p1592
sa(dp1593
g3
(lp1594
sg5
g6
sg7
S'img_07849.jpg'
p1595
sa(dp1596
g3
(lp1597
sg5
g6
sg7
S'img_07775.jpg'
p1598
sa(dp1599
g3
(lp1600
sg5
g6
sg7
S'img_07765.jpg'
p1601
sa(dp1602
g3
(lp1603
sg5
g6
sg7
S'img_07750.jpg'
p1604
sa(dp1605
g3
(lp1606
sg5
g6
sg7
S'img_07712.jpg'
p1607
sa(dp1608
g3
(lp1609
sg5
g6
sg7
S'img_07665.jpg'
p1610
sa(dp1611
g3
(lp1612
sg5
g6
sg7
S'img_07655.jpg'
p1613
sa(dp1614
g3
(lp1615
sg5
g6
sg7
S'img_07653.jpg'
p1616
sa(dp1617
g3
(lp1618
sg5
g6
sg7
S'img_07577.jpg'
p1619
sa(dp1620
g3
(lp1621
sg5
g6
sg7
S'img_07569.jpg'
p1622
sa(dp1623
g3
(lp1624
sg5
g6
sg7
S'img_07530.jpg'
p1625
sa(dp1626
g3
(lp1627
sg5
g6
sg7
S'img_07517.jpg'
p1628
sa(dp1629
g3
(lp1630
sg5
g6
sg7
S'img_07499.jpg'
p1631
sa(dp1632
g3
(lp1633
sg5
g6
sg7
S'img_07472.jpg'
p1634
sa(dp1635
g3
(lp1636
sg5
g6
sg7
S'img_07427.jpg'
p1637
sa(dp1638
g3
(lp1639
sg5
g6
sg7
S'img_07403.jpg'
p1640
sa(dp1641
g3
(lp1642
sg5
g6
sg7
S'img_07315.jpg'
p1643
sa(dp1644
g3
(lp1645
sg5
g6
sg7
S'img_07286.jpg'
p1646
sa(dp1647
g3
(lp1648
sg5
g6
sg7
S'img_07276.jpg'
p1649
sa(dp1650
g3
(lp1651
sg5
g6
sg7
S'img_07226.jpg'
p1652
sa(dp1653
g3
(lp1654
sg5
g6
sg7
S'img_07095.jpg'
p1655
sa(dp1656
g3
(lp1657
sg5
g6
sg7
S'img_07069.jpg'
p1658
sa(dp1659
g3
(lp1660
sg5
g6
sg7
S'img_06925.jpg'
p1661
sa(dp1662
g3
(lp1663
sg5
g6
sg7
S'img_06898.jpg'
p1664
sa(dp1665
g3
(lp1666
sg5
g6
sg7
S'img_06875.jpg'
p1667
sa(dp1668
g3
(lp1669
sg5
g6
sg7
S'img_06846.jpg'
p1670
sa(dp1671
g3
(lp1672
sg5
g6
sg7
S'img_06687.jpg'
p1673
sa(dp1674
g3
(lp1675
sg5
g6
sg7
S'img_06569.jpg'
p1676
sa(dp1677
g3
(lp1678
sg5
g6
sg7
S'img_06509.jpg'
p1679
sa(dp1680
g3
(lp1681
sg5
g6
sg7
S'img_06486.jpg'
p1682
sa(dp1683
g3
(lp1684
sg5
g6
sg7
S'img_06464.jpg'
p1685
sa(dp1686
g3
(lp1687
sg5
g6
sg7
S'img_06406.jpg'
p1688
sa(dp1689
g3
(lp1690
sg5
g6
sg7
S'img_06326.jpg'
p1691
sa(dp1692
g3
(lp1693
sg5
g6
sg7
S'img_06316.jpg'
p1694
sa(dp1695
g3
(lp1696
sg5
g6
sg7
S'img_06262.jpg'
p1697
sa(dp1698
g3
(lp1699
sg5
g6
sg7
S'img_06228.jpg'
p1700
sa(dp1701
g3
(lp1702
sg5
g6
sg7
S'img_06146.jpg'
p1703
sa(dp1704
g3
(lp1705
sg5
g6
sg7
S'img_06048.jpg'
p1706
sa(dp1707
g3
(lp1708
sg5
g6
sg7
S'img_05926.jpg'
p1709
sa(dp1710
g3
(lp1711
sg5
g6
sg7
S'img_05903.jpg'
p1712
sa(dp1713
g3
(lp1714
sg5
g6
sg7
S'img_05783.jpg'
p1715
sa(dp1716
g3
(lp1717
sg5
g6
sg7
S'img_05769.jpg'
p1718
sa(dp1719
g3
(lp1720
sg5
g6
sg7
S'img_05765.jpg'
p1721
sa(dp1722
g3
(lp1723
sg5
g6
sg7
S'img_05744.jpg'
p1724
sa(dp1725
g3
(lp1726
sg5
g6
sg7
S'img_05708.jpg'
p1727
sa(dp1728
g3
(lp1729
sg5
g6
sg7
S'img_05706.jpg'
p1730
sa(dp1731
g3
(lp1732
sg5
g6
sg7
S'img_05680.jpg'
p1733
sa(dp1734
g3
(lp1735
sg5
g6
sg7
S'img_05669.jpg'
p1736
sa(dp1737
g3
(lp1738
sg5
g6
sg7
S'img_05667.jpg'
p1739
sa(dp1740
g3
(lp1741
sg5
g6
sg7
S'img_05655.jpg'
p1742
sa(dp1743
g3
(lp1744
sg5
g6
sg7
S'img_05644.jpg'
p1745
sa(dp1746
g3
(lp1747
sg5
g6
sg7
S'img_05495.jpg'
p1748
sa(dp1749
g3
(lp1750
sg5
g6
sg7
S'img_05477.jpg'
p1751
sa(dp1752
g3
(lp1753
sg5
g6
sg7
S'img_05347.jpg'
p1754
sa(dp1755
g3
(lp1756
sg5
g6
sg7
S'img_05329.jpg'
p1757
sa(dp1758
g3
(lp1759
sg5
g6
sg7
S'img_05172.jpg'
p1760
sa(dp1761
g3
(lp1762
sg5
g6
sg7
S'img_05143.jpg'
p1763
sa(dp1764
g3
(lp1765
sg5
g6
sg7
S'img_05128.jpg'
p1766
sa(dp1767
g3
(lp1768
sg5
g6
sg7
S'img_04936.jpg'
p1769
sa(dp1770
g3
(lp1771
sg5
g6
sg7
S'img_04911.jpg'
p1772
sa(dp1773
g3
(lp1774
sg5
g6
sg7
S'img_04825.jpg'
p1775
sa(dp1776
g3
(lp1777
sg5
g6
sg7
S'img_04802.jpg'
p1778
sa(dp1779
g3
(lp1780
sg5
g6
sg7
S'img_04688.jpg'
p1781
sa(dp1782
g3
(lp1783
sg5
g6
sg7
S'img_04684.jpg'
p1784
sa(dp1785
g3
(lp1786
sg5
g6
sg7
S'img_04668.jpg'
p1787
sa(dp1788
g3
(lp1789
sg5
g6
sg7
S'img_04628.jpg'
p1790
sa(dp1791
g3
(lp1792
sg5
g6
sg7
S'img_04551.jpg'
p1793
sa(dp1794
g3
(lp1795
sg5
g6
sg7
S'img_04472.jpg'
p1796
sa(dp1797
g3
(lp1798
sg5
g6
sg7
S'img_04469.jpg'
p1799
sa(dp1800
g3
(lp1801
sg5
g6
sg7
S'img_04467.jpg'
p1802
sa(dp1803
g3
(lp1804
sg5
g6
sg7
S'img_04429.jpg'
p1805
sa(dp1806
g3
(lp1807
sg5
g6
sg7
S'img_04413.jpg'
p1808
sa(dp1809
g3
(lp1810
sg5
g6
sg7
S'img_04360.jpg'
p1811
sa(dp1812
g3
(lp1813
sg5
g6
sg7
S'img_04317.jpg'
p1814
sa(dp1815
g3
(lp1816
sg5
g6
sg7
S'img_04281.jpg'
p1817
sa(dp1818
g3
(lp1819
sg5
g6
sg7
S'img_04249.jpg'
p1820
sa(dp1821
g3
(lp1822
sg5
g6
sg7
S'img_04230.jpg'
p1823
sa(dp1824
g3
(lp1825
sg5
g6
sg7
S'img_04159.jpg'
p1826
sa(dp1827
g3
(lp1828
sg5
g6
sg7
S'img_04148.jpg'
p1829
sa(dp1830
g3
(lp1831
sg5
g6
sg7
S'img_04087.jpg'
p1832
sa(dp1833
g3
(lp1834
sg5
g6
sg7
S'img_03963.jpg'
p1835
sa(dp1836
g3
(lp1837
sg5
g6
sg7
S'img_03939.jpg'
p1838
sa(dp1839
g3
(lp1840
sg5
g6
sg7
S'img_03755.jpg'
p1841
sa(dp1842
g3
(lp1843
sg5
g6
sg7
S'img_03753.jpg'
p1844
sa(dp1845
g3
(lp1846
sg5
g6
sg7
S'img_03654.jpg'
p1847
sa(dp1848
g3
(lp1849
sg5
g6
sg7
S'img_03651.jpg'
p1850
sa(dp1851
g3
(lp1852
sg5
g6
sg7
S'img_03590.jpg'
p1853
sa(dp1854
g3
(lp1855
sg5
g6
sg7
S'img_03568.jpg'
p1856
sa(dp1857
g3
(lp1858
sg5
g6
sg7
S'img_03558.jpg'
p1859
sa(dp1860
g3
(lp1861
sg5
g6
sg7
S'img_03480.jpg'
p1862
sa(dp1863
g3
(lp1864
sg5
g6
sg7
S'img_03400.jpg'
p1865
sa(dp1866
g3
(lp1867
sg5
g6
sg7
S'img_03367.jpg'
p1868
sa(dp1869
g3
(lp1870
sg5
g6
sg7
S'img_03327.jpg'
p1871
sa(dp1872
g3
(lp1873
sg5
g6
sg7
S'img_03253.jpg'
p1874
sa(dp1875
g3
(lp1876
sg5
g6
sg7
S'img_03244.jpg'
p1877
sa(dp1878
g3
(lp1879
sg5
g6
sg7
S'img_03183.jpg'
p1880
sa(dp1881
g3
(lp1882
sg5
g6
sg7
S'img_03096.jpg'
p1883
sa(dp1884
g3
(lp1885
sg5
g6
sg7
S'img_03065.jpg'
p1886
sa(dp1887
g3
(lp1888
sg5
g6
sg7
S'img_03007.jpg'
p1889
sa(dp1890
g3
(lp1891
sg5
g6
sg7
S'img_02905.jpg'
p1892
sa(dp1893
g3
(lp1894
sg5
g6
sg7
S'img_02858.jpg'
p1895
sa(dp1896
g3
(lp1897
sg5
g6
sg7
S'img_02787.jpg'
p1898
sa(dp1899
g3
(lp1900
sg5
g6
sg7
S'img_02721.jpg'
p1901
sa(dp1902
g3
(lp1903
sg5
g6
sg7
S'img_02690.jpg'
p1904
sa(dp1905
g3
(lp1906
sg5
g6
sg7
S'img_02633.jpg'
p1907
sa(dp1908
g3
(lp1909
sg5
g6
sg7
S'img_02562.jpg'
p1910
sa(dp1911
g3
(lp1912
sg5
g6
sg7
S'img_02457.jpg'
p1913
sa(dp1914
g3
(lp1915
sg5
g6
sg7
S'img_02438.jpg'
p1916
sa(dp1917
g3
(lp1918
sg5
g6
sg7
S'img_02351.jpg'
p1919
sa(dp1920
g3
(lp1921
sg5
g6
sg7
S'img_02274.jpg'
p1922
sa(dp1923
g3
(lp1924
sg5
g6
sg7
S'img_02221.jpg'
p1925
sa(dp1926
g3
(lp1927
sg5
g6
sg7
S'img_02179.jpg'
p1928
sa(dp1929
g3
(lp1930
sg5
g6
sg7
S'img_02104.jpg'
p1931
sa(dp1932
g3
(lp1933
sg5
g6
sg7
S'img_02053.jpg'
p1934
sa(dp1935
g3
(lp1936
sg5
g6
sg7
S'img_01953.jpg'
p1937
sa(dp1938
g3
(lp1939
sg5
g6
sg7
S'img_01886.jpg'
p1940
sa(dp1941
g3
(lp1942
sg5
g6
sg7
S'img_01779.jpg'
p1943
sa(dp1944
g3
(lp1945
sg5
g6
sg7
S'img_01747.jpg'
p1946
sa(dp1947
g3
(lp1948
sg5
g6
sg7
S'img_01709.jpg'
p1949
sa(dp1950
g3
(lp1951
sg5
g6
sg7
S'img_01704.jpg'
p1952
sa(dp1953
g3
(lp1954
sg5
g6
sg7
S'img_01675.jpg'
p1955
sa(dp1956
g3
(lp1957
sg5
g6
sg7
S'img_01662.jpg'
p1958
sa(dp1959
g3
(lp1960
sg5
g6
sg7
S'img_01573.jpg'
p1961
sa(dp1962
g3
(lp1963
sg5
g6
sg7
S'img_01518.jpg'
p1964
sa(dp1965
g3
(lp1966
sg5
g6
sg7
S'img_01516.jpg'
p1967
sa(dp1968
g3
(lp1969
sg5
g6
sg7
S'img_01415.jpg'
p1970
sa(dp1971
g3
(lp1972
sg5
g6
sg7
S'img_01403.jpg'
p1973
sa(dp1974
g3
(lp1975
sg5
g6
sg7
S'img_01385.jpg'
p1976
sa(dp1977
g3
(lp1978
sg5
g6
sg7
S'img_01368.jpg'
p1979
sa(dp1980
g3
(lp1981
sg5
g6
sg7
S'img_01233.jpg'
p1982
sa(dp1983
g3
(lp1984
sg5
g6
sg7
S'img_01201.jpg'
p1985
sa(dp1986
g3
(lp1987
sg5
g6
sg7
S'img_01143.jpg'
p1988
sa(dp1989
g3
(lp1990
sg5
g6
sg7
S'img_01113.jpg'
p1991
sa(dp1992
g3
(lp1993
sg5
g6
sg7
S'img_01008.jpg'
p1994
sa(dp1995
g3
(lp1996
sg5
g6
sg7
S'img_00958.jpg'
p1997
sa(dp1998
g3
(lp1999
sg5
g6
sg7
S'img_00955.jpg'
p2000
sa(dp2001
g3
(lp2002
sg5
g6
sg7
S'img_00925.jpg'
p2003
sa(dp2004
g3
(lp2005
sg5
g6
sg7
S'img_00872.jpg'
p2006
sa(dp2007
g3
(lp2008
sg5
g6
sg7
S'img_00871.jpg'
p2009
sa(dp2010
g3
(lp2011
sg5
g6
sg7
S'img_00815.jpg'
p2012
sa(dp2013
g3
(lp2014
sg5
g6
sg7
S'img_00806.jpg'
p2015
sa(dp2016
g3
(lp2017
sg5
g6
sg7
S'img_00738.jpg'
p2018
sa(dp2019
g3
(lp2020
sg5
g6
sg7
S'img_00704.jpg'
p2021
sa(dp2022
g3
(lp2023
sg5
g6
sg7
S'img_00540.jpg'
p2024
sa(dp2025
g3
(lp2026
sg5
g6
sg7
S'img_00535.jpg'
p2027
sa(dp2028
g3
(lp2029
sg5
g6
sg7
S'img_00477.jpg'
p2030
sa(dp2031
g3
(lp2032
sg5
g6
sg7
S'img_00440.jpg'
p2033
sa(dp2034
g3
(lp2035
sg5
g6
sg7
S'img_00436.jpg'
p2036
sa(dp2037
g3
(lp2038
sg5
g6
sg7
S'img_00420.jpg'
p2039
sa(dp2040
g3
(lp2041
sg5
g6
sg7
S'img_00372.jpg'
p2042
sa(dp2043
g3
(lp2044
sg5
g6
sg7
S'img_00333.jpg'
p2045
sa(dp2046
g3
(lp2047
sg5
g6
sg7
S'img_00287.jpg'
p2048
sa(dp2049
g3
(lp2050
sg5
g6
sg7
S'img_00286.jpg'
p2051
sa(dp2052
g3
(lp2053
sg5
g6
sg7
S'img_00222.jpg'
p2054
sa(dp2055
g3
(lp2056
sg5
g6
sg7
S'img_00092.jpg'
p2057
sa(dp2058
g3
(lp2059
sg5
g6
sg7
S'img_00023.jpg'
p2060
sa(dp2061
g3
(lp2062
sg5
g6
sg7
S'img_07649.jpg'
p2063
sa(dp2064
g3
(lp2065
sg5
g6
sg7
S'img_07613.jpg'
p2066
sa(dp2067
g3
(lp2068
sg5
g6
sg7
S'img_07541.jpg'
p2069
sa(dp2070
g3
(lp2071
sg5
g6
sg7
S'img_07466.jpg'
p2072
sa(dp2073
g3
(lp2074
sg5
g6
sg7
S'img_07368.jpg'
p2075
sa(dp2076
g3
(lp2077
sg5
g6
sg7
S'img_07074.jpg'
p2078
sa(dp2079
g3
(lp2080
sg5
g6
sg7
S'img_07072.jpg'
p2081
sa(dp2082
g3
(lp2083
sg5
g6
sg7
S'img_06988.jpg'
p2084
sa(dp2085
g3
(lp2086
sg5
g6
sg7
S'img_06980.jpg'
p2087
sa(dp2088
g3
(lp2089
sg5
g6
sg7
S'img_06897.jpg'
p2090
sa(dp2091
g3
(lp2092
sg5
g6
sg7
S'img_06854.jpg'
p2093
sa(dp2094
g3
(lp2095
sg5
g6
sg7
S'img_06625.jpg'
p2096
sa(dp2097
g3
(lp2098
sg5
g6
sg7
S'img_06600.jpg'
p2099
sa(dp2100
g3
(lp2101
sg5
g6
sg7
S'img_06593.jpg'
p2102
sa(dp2103
g3
(lp2104
sg5
g6
sg7
S'img_06407.jpg'
p2105
sa(dp2106
g3
(lp2107
sg5
g6
sg7
S'img_06364.jpg'
p2108
sa(dp2109
g3
(lp2110
sg5
g6
sg7
S'img_06336.jpg'
p2111
sa(dp2112
g3
(lp2113
sg5
g6
sg7
S'img_05816.jpg'
p2114
sa(dp2115
g3
(lp2116
sg5
g6
sg7
S'img_05786.jpg'
p2117
sa(dp2118
g3
(lp2119
sg5
g6
sg7
S'img_05662.jpg'
p2120
sa(dp2121
g3
(lp2122
sg5
g6
sg7
S'img_05321.jpg'
p2123
sa(dp2124
g3
(lp2125
sg5
g6
sg7
S'img_05282.jpg'
p2126
sa(dp2127
g3
(lp2128
sg5
g6
sg7
S'img_05166.jpg'
p2129
sa(dp2130
g3
(lp2131
sg5
g6
sg7
S'img_05152.jpg'
p2132
sa(dp2133
g3
(lp2134
sg5
g6
sg7
S'img_05041.jpg'
p2135
sa(dp2136
g3
(lp2137
sg5
g6
sg7
S'img_04952.jpg'
p2138
sa(dp2139
g3
(lp2140
sg5
g6
sg7
S'img_04594.jpg'
p2141
sa(dp2142
g3
(lp2143
sg5
g6
sg7
S'img_04526.jpg'
p2144
sa(dp2145
g3
(lp2146
sg5
g6
sg7
S'img_04516.jpg'
p2147
sa(dp2148
g3
(lp2149
sg5
g6
sg7
S'img_04420.jpg'
p2150
sa(dp2151
g3
(lp2152
sg5
g6
sg7
S'img_04355.jpg'
p2153
sa(dp2154
g3
(lp2155
sg5
g6
sg7
S'img_04224.jpg'
p2156
sa(dp2157
g3
(lp2158
sg5
g6
sg7
S'img_04046.jpg'
p2159
sa(dp2160
g3
(lp2161
sg5
g6
sg7
S'img_03779.jpg'
p2162
sa(dp2163
g3
(lp2164
sg5
g6
sg7
S'img_03649.jpg'
p2165
sa(dp2166
g3
(lp2167
sg5
g6
sg7
S'img_03543.jpg'
p2168
sa(dp2169
g3
(lp2170
sg5
g6
sg7
S'img_03437.jpg'
p2171
sa(dp2172
g3
(lp2173
sg5
g6
sg7
S'img_03430.jpg'
p2174
sa(dp2175
g3
(lp2176
sg5
g6
sg7
S'img_03407.jpg'
p2177
sa(dp2178
g3
(lp2179
sg5
g6
sg7
S'img_02493.jpg'
p2180
sa(dp2181
g3
(lp2182
sg5
g6
sg7
S'img_02449.jpg'
p2183
sa(dp2184
g3
(lp2185
sg5
g6
sg7
S'img_01972.jpg'
p2186
sa(dp2187
g3
(lp2188
sg5
g6
sg7
S'img_01817.jpg'
p2189
sa(dp2190
g3
(lp2191
sg5
g6
sg7
S'img_01691.jpg'
p2192
sa(dp2193
g3
(lp2194
sg5
g6
sg7
S'img_01372.jpg'
p2195
sa(dp2196
g3
(lp2197
sg5
g6
sg7
S'img_00916.jpg'
p2198
sa(dp2199
g3
(lp2200
sg5
g6
sg7
S'img_00778.jpg'
p2201
sa(dp2202
g3
(lp2203
sg5
g6
sg7
S'img_00218.jpg'
p2204
sa(dp2205
g3
(lp2206
sg5
g6
sg7
S'img_00052.jpg'
p2207
sa.