(lp1
(dp2
S'annotations'
p3
(lp4
(dp5
S'height'
p6
F152
sS'width'
p7
F78
sS'y'
F351
sS'x'
F532
sS'class'
p8
S'SHARK'
p9
sasg8
S'image'
p10
sS'filename'
p11
S'img_07860.jpg'
p12
sa(dp13
g3
(lp14
(dp15
g6
F145
sg7
F64
sS'y'
F351
sS'x'
F552
sg8
g9
sasg8
g10
sg11
S'img_07857.jpg'
p16
sa(dp17
g3
(lp18
(dp19
g6
F135
sg7
F94
sS'y'
F363
sS'x'
F526
sg8
g9
sasg8
g10
sg11
S'img_07841.jpg'
p20
sa(dp21
g3
(lp22
(dp23
g6
F314
sg7
F487
sS'y'
F490
sS'x'
F9
sg8
g9
sasg8
g10
sg11
S'img_07661.jpg'
p24
sa(dp25
g3
(lp26
(dp27
g6
F107
sg7
F39
sS'y'
F352
sS'x'
F585
sg8
g9
sasg8
g10
sg11
S'img_07556.jpg'
p28
sa(dp29
g3
(lp30
(dp31
g6
F127
sg7
F85
sS'y'
F361
sS'x'
F530
sg8
g9
sasg8
g10
sg11
S'img_07533.jpg'
p32
sa(dp33
g3
(lp34
(dp35
g6
F233
sg7
F580
sS'y'
F170
sS'x'
F398
sg8
g9
sasg8
g10
sg11
S'img_07498.jpg'
p36
sa(dp37
g3
(lp38
(dp39
g6
F87
sg7
F167
sS'y'
F439
sS'x'
F464
sg8
g9
sasg8
g10
sg11
S'img_07484.jpg'
p40
sa(dp41
g3
(lp42
(dp43
g6
F312
sg7
F484
sS'y'
F492
sS'x'
F8
sg8
g9
sasg8
g10
sg11
S'img_07473.jpg'
p44
sa(dp45
g3
(lp46
(dp47
g6
F226
sg7
F567
sS'y'
F164
sS'x'
F402
sg8
g9
sasg8
g10
sg11
S'img_07414.jpg'
p48
sa(dp49
g3
(lp50
(dp51
g6
F146
sg7
F45
sS'y'
F350
sS'x'
F579
sg8
g9
sasg8
g10
sg11
S'img_07392.jpg'
p52
sa(dp53
g3
(lp54
(dp55
g6
F88
sg7
F160
sS'y'
F434
sS'x'
F468
sg8
g9
sasg8
g10
sg11
S'img_07282.jpg'
p56
sa(dp57
g3
(lp58
sg8
g10
sg11
S'img_07221.jpg'
p59
sa(dp60
g3
(lp61
(dp62
g6
F90
sg7
F158
sS'y'
F433
sS'x'
F470
sg8
g9
sasg8
g10
sg11
S'img_07080.jpg'
p63
sa(dp64
g3
(lp65
(dp66
g6
F311
sg7
F491
sS'y'
F490
sS'x'
F5
sg8
g9
sasg8
g10
sg11
S'img_07056.jpg'
p67
sa(dp68
g3
(lp69
(dp70
g6
F238
sg7
F554
sS'y'
F571
sS'x'
F369
sg8
g9
sasg8
g10
sg11
S'img_07022.jpg'
p71
sa(dp72
g3
(lp73
(dp74
g6
F239
sg7
F631
sS'y'
F569
sS'x'
F362
sg8
g9
sasg8
g10
sg11
S'img_07003.jpg'
p75
sa(dp76
g3
(lp77
(dp78
g6
F83
sg7
F162
sS'y'
F437
sS'x'
F466
sg8
g9
sasg8
g10
sg11
S'img_06956.jpg'
p79
sa(dp80
g3
(lp81
(dp82
g6
F128
sg7
F73
sS'y'
F364
sS'x'
F495
sg8
g9
sasg8
g10
sg11
S'img_06913.jpg'
p83
sa(dp84
g3
(lp85
(dp86
g6
F126
sg7
F55
sS'y'
F466
sS'x'
F131
sg8
g9
sa(dp87
g6
F131
sg7
F53
sS'y'
F439
sS'x'
F173
sg8
g9
sasg8
g10
sg11
S'img_06903.jpg'
p88
sa(dp89
g3
(lp90
(dp91
g6
F247
sg7
F448
sS'y'
F565
sS'x'
F368
sg8
g9
sasg8
g10
sg11
S'img_06881.jpg'
p92
sa(dp93
g3
(lp94
(dp95
g6
F306
sg7
F479
sS'y'
F493
sS'x'
F12
sg8
g9
sasg8
g10
sg11
S'img_06847.jpg'
p96
sa(dp97
g3
(lp98
(dp99
g6
F130
sg7
F64
sS'y'
F360
sS'x'
F556
sg8
g9
sasg8
g10
sg11
S'img_06821.jpg'
p100
sa(dp101
g3
(lp102
(dp103
g6
F219
sg7
F651
sS'y'
F564
sS'x'
F359
sg8
g9
sasg8
g10
sg11
S'img_06786.jpg'
p104
sa(dp105
g3
(lp106
(dp107
g6
F140
sg7
F51
sS'y'
F353
sS'x'
F576
sg8
g9
sasg8
g10
sg11
S'img_06686.jpg'
p108
sa(dp109
g3
(lp110
(dp111
g6
F131
sg7
F91
sS'y'
F361
sS'x'
F528
sg8
g9
sasg8
g10
sg11
S'img_06677.jpg'
p112
sa(dp113
g3
(lp114
(dp115
g6
F128
sg7
F56
sS'y'
F464
sS'x'
F129
sg8
g9
sa(dp116
g6
F116
sg7
F49
sS'y'
F446
sS'x'
F172
sg8
g9
sasg8
g10
sg11
S'img_06595.jpg'
p117
sa(dp118
g3
(lp119
(dp120
g6
F232
sg7
F541
sS'y'
F159
sS'x'
F406
sg8
g9
sasg8
g10
sg11
S'img_06590.jpg'
p121
sa(dp122
g3
(lp123
(dp124
g6
F142
sg7
F48
sS'y'
F353
sS'x'
F568
sg8
g9
sasg8
g10
sg11
S'img_06537.jpg'
p125
sa(dp126
g3
(lp127
(dp128
g6
F130
sg7
F55
sS'y'
F466
sS'x'
F128
sg8
g9
sa(dp129
g6
F105
sg7
F49
sS'y'
F449
sS'x'
F171
sg8
g9
sasg8
g10
sg11
S'img_06523.jpg'
p130
sa(dp131
g3
(lp132
(dp133
g6
F127
sg7
F54
sS'y'
F439
sS'x'
F170
sg8
g9
sa(dp134
g6
F123
sg7
F62
sS'y'
F470
sS'x'
F127
sg8
g9
sasg8
g10
sg11
S'img_06493.jpg'
p135
sa(dp136
g3
(lp137
(dp138
g6
F77
sg7
F159
sS'y'
F439
sS'x'
F471
sg8
g9
sasg8
g10
sg11
S'img_06474.jpg'
p139
sa(dp140
g3
(lp141
(dp142
g6
F141
sg7
F60
sS'y'
F364
sS'x'
F558
sg8
g9
sasg8
g10
sg11
S'img_06467.jpg'
p143
sa(dp144
g3
(lp145
(dp146
g6
F135
sg7
F69
sS'y'
F348
sS'x'
F556
sg8
g9
sasg8
g10
sg11
S'img_06448.jpg'
p147
sa(dp148
g3
(lp149
(dp150
g6
F276
sg7
F552
sS'y'
F157
sS'x'
F412
sg8
g9
sasg8
g10
sg11
S'img_06444.jpg'
p151
sa(dp152
g3
(lp153
(dp154
g6
F226
sg7
F639
sS'y'
F566
sS'x'
F364
sg8
g9
sasg8
g10
sg11
S'img_06410.jpg'
p155
sa(dp156
g3
(lp157
(dp158
g6
F211
sg7
F575
sS'y'
F164
sS'x'
F407
sg8
g9
sasg8
g10
sg11
S'img_06385.jpg'
p159
sa(dp160
g3
(lp161
(dp162
g6
F233
sg7
F474
sS'y'
F573
sS'x'
F368
sg8
g9
sasg8
g10
sg11
S'img_06303.jpg'
p163
sa(dp164
g3
(lp165
(dp166
g6
F244
sg7
F373
sS'y'
F556
sS'x'
F121
sg8
g9
sasg8
g10
sg11
S'img_06220.jpg'
p167
sa(dp168
g3
(lp169
(dp170
g6
F215
sg7
F438
sS'y'
F161
sS'x'
F234
sg8
g9
sasg8
g10
sg11
S'img_06163.jpg'
p171
sa(dp172
g3
(lp173
(dp174
g6
F140
sg7
F67
sS'y'
F351
sS'x'
F548
sg8
g9
sasg8
g10
sg11
S'img_06124.jpg'
p175
sa(dp176
g3
(lp177
(dp178
g6
F103
sg7
F56
sS'y'
F351
sS'x'
F564
sg8
g9
sasg8
g10
sg11
S'img_06118.jpg'
p179
sa(dp180
g3
(lp181
(dp182
g6
F201
sg7
F395
sS'y'
F174
sS'x'
F594
sg8
S'ALB'
p183
sa(dp184
g6
F199
sg7
F117
sS'y'
F283
sS'x'
F2
sg8
S'LAG'
p185
sasg8
g10
sg11
S'img_06082.jpg'
p186
sa(dp187
g3
(lp188
(dp189
g6
F85
sg7
F157
sS'y'
F437
sS'x'
F471
sg8
g9
sa(dp190
g6
F73
sg7
F189
sS'y'
F414
sS'x'
F148
sg8
S'YFT'
p191
sasg8
g10
sg11
S'img_06013.jpg'
p192
sa(dp193
g3
(lp194
(dp195
g6
F162
sg7
F230
sS'y'
F178
sS'x'
F658
sg8
g9
sasg8
g10
sg11
S'img_06006.jpg'
p196
sa(dp197
g3
(lp198
(dp199
g6
F77
sg7
F159
sS'y'
F442
sS'x'
F470
sg8
g9
sa(dp200
g6
F69
sg7
F197
sS'y'
F416
sS'x'
F140
sg8
g191
sasg8
g10
sg11
S'img_06000.jpg'
p201
sa(dp202
g3
(lp203
sg8
g10
sg11
S'img_05942.jpg'
p204
sa(dp205
g3
(lp206
(dp207
g6
F81
sg7
F197
sS'y'
F443
sS'x'
F401
sg8
g9
sa(dp208
g6
F77
sg7
F165
sS'y'
F404
sS'x'
F132
sg8
g191
sasg8
g10
sg11
S'img_05900.jpg'
p209
sa(dp210
g3
(lp211
(dp212
g6
F200
sg7
F490
sS'y'
F190
sS'x'
F233
sg8
g9
sasg8
g10
sg11
S'img_05887.jpg'
p213
sa(dp214
g3
(lp215
sg8
g10
sg11
S'img_05873.jpg'
p216
sa(dp217
g3
(lp218
(dp219
g6
F178
sg7
F522
sS'y'
F193
sS'x'
F266
sg8
g9
sasg8
g10
sg11
S'img_05872.jpg'
p220
sa(dp221
g3
(lp222
(dp223
g6
F4
sg7
F6
sS'y'
F559
sS'x'
F379
sg8
g9
sa(dp224
g6
F247
sg7
F446
sS'y'
F566
sS'x'
F375
sg8
g9
sasg8
g10
sg11
S'img_05762.jpg'
p225
sa(dp226
g3
(lp227
sg8
g10
sg11
S'img_05685.jpg'
p228
sa(dp229
g3
(lp230
(dp231
g6
F187
sg7
F491
sS'y'
F195
sS'x'
F234
sg8
g9
sasg8
g10
sg11
S'img_05579.jpg'
p232
sa(dp233
g3
(lp234
(dp235
g6
F234
sg7
F484
sS'y'
F576
sS'x'
F361
sg8
g9
sasg8
g10
sg11
S'img_05532.jpg'
p236
sa(dp237
g3
(lp238
(dp239
g6
F140
sg7
F59
sS'y'
F342
sS'x'
F562
sg8
g9
sasg8
g10
sg11
S'img_05519.jpg'
p240
sa(dp241
g3
(lp242
(dp243
g6
F143
sg7
F42
sS'y'
F354
sS'x'
F582
sg8
g9
sasg8
g10
sg11
S'img_05504.jpg'
p244
sa(dp245
g3
(lp246
(dp247
g6
F241
sg7
F558
sS'y'
F568
sS'x'
F359
sg8
g9
sasg8
g10
sg11
S'img_05464.jpg'
p248
sa(dp249
g3
(lp250
(dp251
g6
F124
sg7
F84
sS'y'
F369
sS'x'
F533
sg8
g9
sasg8
g10
sg11
S'img_05399.jpg'
p252
sa(dp253
g3
(lp254
(dp255
g6
F60
sg7
F182
sS'y'
F454
sS'x'
F436
sg8
g9
sa(dp256
g6
F73
sg7
F177
sS'y'
F407
sS'x'
F120
sg8
g191
sasg8
g10
sg11
S'img_05391.jpg'
p257
sa(dp258
g3
(lp259
(dp260
g6
F81
sg7
F150
sS'y'
F438
sS'x'
F476
sg8
g9
sa(dp261
g6
F70
sg7
F193
sS'y'
F415
sS'x'
F142
sg8
g191
sasg8
g10
sg11
S'img_05366.jpg'
p262
sa(dp263
g3
(lp264
(dp265
g6
F126
sg7
F53
sS'y'
F364
sS'x'
F567
sg8
g9
sasg8
g10
sg11
S'img_05327.jpg'
p266
sa(dp267
g3
(lp268
(dp269
g6
F238
sg7
F536
sS'y'
F572
sS'x'
F365
sg8
g9
sasg8
g10
sg11
S'img_05300.jpg'
p270
sa(dp271
g3
(lp272
(dp273
g6
F85
sg7
F165
sS'y'
F433
sS'x'
F471
sg8
g9
sa(dp274
g6
F59
sg7
F191
sS'y'
F422
sS'x'
F151
sg8
g191
sasg8
g10
sg11
S'img_05257.jpg'
p275
sa(dp276
g3
(lp277
(dp278
g6
F198
sg7
F634
sS'y'
F573
sS'x'
F367
sg8
g9
sasg8
g10
sg11
S'img_05249.jpg'
p279
sa(dp280
g3
(lp281
(dp282
g6
F201
sg7
F654
sS'y'
F570
sS'x'
F362
sg8
g9
sasg8
g10
sg11
S'img_05231.jpg'
p283
sa(dp284
g3
(lp285
(dp286
g6
F86
sg7
F160
sS'y'
F436
sS'x'
F469
sg8
g9
sa(dp287
g6
F64
sg7
F196
sS'y'
F417
sS'x'
F145
sg8
g191
sasg8
g10
sg11
S'img_05126.jpg'
p288
sa(dp289
g3
(lp290
(dp291
g6
F201
sg7
F489
sS'y'
F193
sS'x'
F234
sg8
g9
sasg8
g10
sg11
S'img_05019.jpg'
p292
sa(dp293
g3
(lp294
(dp295
g6
F234
sg7
F543
sS'y'
F575
sS'x'
F361
sg8
g9
sasg8
g10
sg11
S'img_04910.jpg'
p296
sa(dp297
g3
(lp298
(dp299
g6
F146
sg7
F60
sS'y'
F348
sS'x'
F562
sg8
g9
sasg8
g10
sg11
S'img_04857.jpg'
p300
sa(dp301
g3
(lp302
(dp303
g6
F306
sg7
F483
sS'y'
F499
sS'x'
F13
sg8
g9
sasg8
g10
sg11
S'img_04855.jpg'
p304
sa(dp305
g3
(lp306
(dp307
g6
F91
sg7
F157
sS'y'
F431
sS'x'
F470
sg8
g9
sa(dp308
g6
F66
sg7
F178
sS'y'
F419
sS'x'
F158
sg8
g191
sasg8
g10
sg11
S'img_04854.jpg'
p309
sa(dp310
g3
(lp311
(dp312
g6
F219
sg7
F643
sS'y'
F566
sS'x'
F363
sg8
g9
sasg8
g10
sg11
S'img_04837.jpg'
p313
sa(dp314
g3
(lp315
(dp316
g6
F94
sg7
F163
sS'y'
F433
sS'x'
F466
sg8
g9
sa(dp317
g6
F70
sg7
F205
sS'y'
F414
sS'x'
F138
sg8
g191
sasg8
g10
sg11
S'img_04819.jpg'
p318
sa(dp319
g3
(lp320
sg8
g10
sg11
S'img_04791.jpg'
p321
sa(dp322
g3
(lp323
sg8
g10
sg11
S'img_04710.jpg'
p324
sa(dp325
g3
(lp326
(dp327
g6
F280
sg7
F515
sS'y'
F133
sS'x'
F339
sg8
g9
sasg8
g10
sg11
S'img_04682.jpg'
p328
sa(dp329
g3
(lp330
(dp331
g6
F251
sg7
F359
sS'y'
F559
sS'x'
F138
sg8
g9
sasg8
g10
sg11
S'img_04650.jpg'
p332
sa(dp333
g3
(lp334
sg8
g10
sg11
S'img_04618.jpg'
p335
sa(dp336
g3
(lp337
sg8
g10
sg11
S'img_04535.jpg'
p338
sa(dp339
g3
(lp340
sg8
g10
sg11
S'img_04359.jpg'
p341
sa(dp342
g3
(lp343
sg8
g10
sg11
S'img_04343.jpg'
p344
sa(dp345
g3
(lp346
sg8
g10
sg11
S'img_04245.jpg'
p347
sa(dp348
g3
(lp349
sg8
g10
sg11
S'img_04235.jpg'
p350
sa(dp351
g3
(lp352
(dp353
g6
F178
sg7
F498
sS'y'
F192
sS'x'
F282
sg8
g9
sasg8
g10
sg11
S'img_04177.jpg'
p354
sa(dp355
g3
(lp356
(dp357
g6
F233
sg7
F617
sS'y'
F573
sS'x'
F365
sg8
g9
sasg8
g10
sg11
S'img_04170.jpg'
p358
sa(dp359
g3
(lp360
sg8
g10
sg11
S'img_04161.jpg'
p361
sa(dp362
g3
(lp363
sg8
g10
sg11
S'img_04131.jpg'
p364
sa(dp365
g3
(lp366
sg8
g10
sg11
S'img_04110.jpg'
p367
sa(dp368
g3
(lp369
sg8
g10
sg11
S'img_04050.jpg'
p370
sa(dp371
g3
(lp372
sg8
g10
sg11
S'img_03983.jpg'
p373
sa(dp374
g3
(lp375
sg8
g10
sg11
S'img_03976.jpg'
p376
sa(dp377
g3
(lp378
sg8
g10
sg11
S'img_03971.jpg'
p379
sa(dp380
g3
(lp381
(dp382
g6
F155
sg7
F461
sS'y'
F220
sS'x'
F250
sg8
g9
sasg8
g10
sg11
S'img_03962.jpg'
p383
sa(dp384
g3
(lp385
sg8
g10
sg11
S'img_03791.jpg'
p386
sa(dp387
g3
(lp388
(dp389
g6
F228
sg7
F502
sS'y'
F573
sS'x'
F365
sg8
g9
sasg8
g10
sg11
S'img_03770.jpg'
p390
sa(dp391
g3
(lp392
sg8
g10
sg11
S'img_03712.jpg'
p393
sa(dp394
g3
(lp395
(dp396
g6
F260
sg7
F511
sS'y'
F132
sS'x'
F318
sg8
g9
sasg8
g10
sg11
S'img_03525.jpg'
p397
sa(dp398
g3
(lp399
(dp400
g6
F161
sg7
F493
sS'y'
F221
sS'x'
F249
sg8
g9
sasg8
g10
sg11
S'img_03521.jpg'
p401
sa(dp402
g3
(lp403
(dp404
g6
F169
sg7
F540
sS'y'
F220
sS'x'
F419
sg8
g9
sasg8
g10
sg11
S'img_03507.jpg'
p405
sa(dp406
g3
(lp407
(dp408
g6
F187
sg7
F489
sS'y'
F196
sS'x'
F234
sg8
g9
sasg8
g10
sg11
S'img_03385.jpg'
p409
sa(dp410
g3
(lp411
sg8
g10
sg11
S'img_03353.jpg'
p412
sa(dp413
g3
(lp414
(dp415
g6
F248
sg7
F350
sS'y'
F555
sS'x'
F147
sg8
g9
sasg8
g10
sg11
S'img_03351.jpg'
p416
sa(dp417
g3
(lp418
(dp419
g6
F312
sg7
F488
sS'y'
F494
sS'x'
F10
sg8
g9
sasg8
g10
sg11
S'img_03305.jpg'
p420
sa(dp421
g3
(lp422
sg8
g10
sg11
S'img_03241.jpg'
p423
sa(dp424
g3
(lp425
sg8
g10
sg11
S'img_03170.jpg'
p426
sa(dp427
g3
(lp428
sg8
g10
sg11
S'img_03168.jpg'
p429
sa(dp430
g3
(lp431
(dp432
g6
F187
sg7
F493
sS'y'
F195
sS'x'
F229
sg8
g9
sasg8
g10
sg11
S'img_03148.jpg'
p433
sa(dp434
g3
(lp435
sg8
g10
sg11
S'img_03131.jpg'
p436
sa(dp437
g3
(lp438
(dp439
g6
F223
sg7
F553
sS'y'
F163
sS'x'
F411
sg8
g9
sasg8
g10
sg11
S'img_03117.jpg'
p440
sa(dp441
g3
(lp442
(dp443
g6
F310
sg7
F487
sS'y'
F496
sS'x'
F9
sg8
g9
sasg8
g10
sg11
S'img_03057.jpg'
p444
sa(dp445
g3
(lp446
(dp447
g6
F308
sg7
F489
sS'y'
F495
sS'x'
F9
sg8
g9
sasg8
g10
sg11
S'img_02987.jpg'
p448
sa(dp449
g3
(lp450
sg8
g10
sg11
S'img_02944.jpg'
p451
sa(dp452
g3
(lp453
sg8
g10
sg11
S'img_02867.jpg'
p454
sa(dp455
g3
(lp456
sg8
g10
sg11
S'img_02790.jpg'
p457
sa(dp458
g3
(lp459
sg8
g10
sg11
S'img_02744.jpg'
p460
sa(dp461
g3
(lp462
sg8
g10
sg11
S'img_02732.jpg'
p463
sa(dp464
g3
(lp465
sg8
g10
sg11
S'img_02718.jpg'
p466
sa(dp467
g3
(lp468
sg8
g10
sg11
S'img_02624.jpg'
p469
sa(dp470
g3
(lp471
(dp472
g6
F253
sg7
F523
sS'y'
F555
sS'x'
F361
sg8
g9
sasg8
g10
sg11
S'img_02558.jpg'
p473
sa(dp474
g3
(lp475
(dp476
g6
F197
sg7
F482
sS'y'
F183
sS'x'
F235
sg8
g9
sasg8
g10
sg11
S'img_02557.jpg'
p477
sa(dp478
g3
(lp479
sg8
g10
sg11
S'img_02478.jpg'
p480
sa(dp481
g3
(lp482
sg8
g10
sg11
S'img_02469.jpg'
p483
sa(dp484
g3
(lp485
sg8
g10
sg11
S'img_02348.jpg'
p486
sa(dp487
g3
(lp488
sg8
g10
sg11
S'img_02288.jpg'
p489
sa(dp490
g3
(lp491
sg8
g10
sg11
S'img_02271.jpg'
p492
sa(dp493
g3
(lp494
(dp495
g6
F198
sg7
F405
sS'y'
F201
sS'x'
F218
sg8
g9
sasg8
g10
sg11
S'img_02260.jpg'
p496
sa(dp497
g3
(lp498
(dp499
g6
F189
sg7
F628
sS'y'
F572
sS'x'
F365
sg8
g9
sasg8
g10
sg11
S'img_02259.jpg'
p500
sa(dp501
g3
(lp502
sg8
g10
sg11
S'img_02224.jpg'
p503
sa(dp504
g3
(lp505
(dp506
g6
F238
sg7
F491
sS'y'
F564
sS'x'
F377
sg8
g9
sasg8
g10
sg11
S'img_02176.jpg'
p507
sa(dp508
g3
(lp509
(dp510
g6
F217
sg7
F529
sS'y'
F176
sS'x'
F375
sg8
g9
sasg8
g10
sg11
S'img_02169.jpg'
p511
sa(dp512
g3
(lp513
(dp514
g6
F301
sg7
F468
sS'y'
F500
sS'x'
F28
sg8
g9
sasg8
g10
sg11
S'img_02114.jpg'
p515
sa(dp516
g3
(lp517
(dp518
g6
F210
sg7
F633
sS'y'
F568
sS'x'
F363
sg8
g9
sasg8
g10
sg11
S'img_02095.jpg'
p519
sa(dp520
g3
(lp521
(dp522
g6
F230
sg7
F426
sS'y'
F571
sS'x'
F360
sg8
g9
sasg8
g10
sg11
S'img_02094.jpg'
p523
sa(dp524
g3
(lp525
sg8
g10
sg11
S'img_02088.jpg'
p526
sa(dp527
g3
(lp528
sg8
g10
sg11
S'img_02087.jpg'
p529
sa(dp530
g3
(lp531
sg8
g10
sg11
S'img_02080.jpg'
p532
sa(dp533
g3
(lp534
sg8
g10
sg11
S'img_01986.jpg'
p535
sa(dp536
g3
(lp537
sg8
g10
sg11
S'img_01942.jpg'
p538
sa(dp539
g3
(lp540
(dp541
g6
F203
sg7
F495
sS'y'
F190
sS'x'
F238
sg8
g9
sasg8
g10
sg11
S'img_01916.jpg'
p542
sa(dp543
g3
(lp544
(dp545
g6
F187
sg7
F505
sS'y'
F195
sS'x'
F224
sg8
g9
sasg8
g10
sg11
S'img_01881.jpg'
p546
sa(dp547
g3
(lp548
sg8
g10
sg11
S'img_01820.jpg'
p549
sa(dp550
g3
(lp551
sg8
g10
sg11
S'img_01795.jpg'
p552
sa(dp553
g3
(lp554
sg8
g10
sg11
S'img_01780.jpg'
p555
sa(dp556
g3
(lp557
sg8
g10
sg11
S'img_01759.jpg'
p558
sa(dp559
g3
(lp560
(dp561
g6
F306
sg7
F507
sS'y'
F501
sS'x'
F-6
sg8
g9
sasg8
g10
sg11
S'img_01572.jpg'
p562
sa(dp563
g3
(lp564
sg8
g10
sg11
S'img_01546.jpg'
p565
sa(dp566
g3
(lp567
sg8
g10
sg11
S'img_01524.jpg'
p568
sa(dp569
g3
(lp570
sg8
g10
sg11
S'img_01432.jpg'
p571
sa(dp572
g3
(lp573
sg8
g10
sg11
S'img_01406.jpg'
p574
sa(dp575
g3
(lp576
(dp577
g6
F249
sg7
F448
sS'y'
F564
sS'x'
F366
sg8
g9
sasg8
g10
sg11
S'img_01342.jpg'
p578
sa(dp579
g3
(lp580
sg8
g10
sg11
S'img_01324.jpg'
p581
sa(dp582
g3
(lp583
(dp584
g6
F246
sg7
F461
sS'y'
F562
sS'x'
F374
sg8
g9
sasg8
g10
sg11
S'img_01307.jpg'
p585
sa(dp586
g3
(lp587
(dp588
g6
F306
sg7
F483
sS'y'
F497
sS'x'
F11
sg8
g9
sasg8
g10
sg11
S'img_01298.jpg'
p589
sa(dp590
g3
(lp591
sg8
g10
sg11
S'img_01182.jpg'
p592
sa(dp593
g3
(lp594
sg8
g10
sg11
S'img_01161.jpg'
p595
sa(dp596
g3
(lp597
sg8
g10
sg11
S'img_01061.jpg'
p598
sa(dp599
g3
(lp600
sg8
g10
sg11
S'img_00903.jpg'
p601
sa(dp602
g3
(lp603
sg8
g10
sg11
S'img_00736.jpg'
p604
sa(dp605
g3
(lp606
sg8
g10
sg11
S'img_00703.jpg'
p607
sa(dp608
g3
(lp609
sg8
g10
sg11
S'img_00685.jpg'
p610
sa(dp611
g3
(lp612
sg8
g10
sg11
S'img_00600.jpg'
p613
sa(dp614
g3
(lp615
sg8
g10
sg11
S'img_00560.jpg'
p616
sa(dp617
g3
(lp618
sg8
g10
sg11
S'img_00510.jpg'
p619
sa(dp620
g3
(lp621
sg8
g10
sg11
S'img_00478.jpg'
p622
sa(dp623
g3
(lp624
sg8
g10
sg11
S'img_00427.jpg'
p625
sa(dp626
g3
(lp627
sg8
g10
sg11
S'img_00409.jpg'
p628
sa(dp629
g3
(lp630
sg8
g10
sg11
S'img_00391.jpg'
p631
sa(dp632
g3
(lp633
sg8
g10
sg11
S'img_00365.jpg'
p634
sa(dp635
g3
(lp636
sg8
g10
sg11
S'img_00265.jpg'
p637
sa(dp638
g3
(lp639
sg8
g10
sg11
S'img_00247.jpg'
p640
sa(dp641
g3
(lp642
sg8
g10
sg11
S'img_00245.jpg'
p643
sa(dp644
g3
(lp645
sg8
g10
sg11
S'img_00235.jpg'
p646
sa(dp647
g3
(lp648
sg8
g10
sg11
S'img_00096.jpg'
p649
sa(dp650
g3
(lp651
sg8
g10
sg11
S'img_00072.jpg'
p652
sa(dp653
g3
(lp654
sg8
g10
sg11
S'img_00033.jpg'
p655
sa.