(lp1
(dp2
S'annotations'
p3
(lp4
(dp5
S'height'
p6
F252.39000000000004
sS'width'
p7
F779.73000000000013
sS'y'
F496.32000000000011
sS'x'
F399.03000000000009
sS'class'
p8
S'YFT'
p9
sasg8
S'image'
p10
sS'filename'
p11
S'img_07891.jpg'
p12
sa(dp13
g3
(lp14
(dp15
g6
F294.69000000000011
sg7
F349.68000000000006
sS'y'
F490.68000000000012
sS'x'
F716.2800000000002
sg8
g9
sasg8
g10
sg11
S'img_07782.jpg'
p16
sa(dp17
g3
(lp18
(dp19
g6
F282
sg7
F263
sS'y'
F328
sS'x'
F384
sg8
g9
sasg8
g10
sg11
S'img_07761.jpg'
p20
sa(dp21
g3
(lp22
(dp23
g6
F258.99000000000024
sg7
F456.49000000000024
sS'y'
F501
sS'x'
F515
sg8
g9
sasg8
g10
sg11
S'img_07714.jpg'
p24
sa(dp25
g3
(lp26
(dp27
g6
F272.13000000000005
sg7
F362.37000000000006
sS'y'
F459.66000000000014
sS'x'
F500.55000000000013
sg8
g9
sasg8
g10
sg11
S'img_07648.jpg'
p28
sa(dp29
g3
(lp30
(dp31
g6
F322.89000000000004
sg7
F322.8900000000001
sS'y'
F404.67000000000013
sS'x'
F442.74000000000012
sg8
g9
sasg8
g10
sg11
S'img_07633.jpg'
p32
sa(dp33
g3
(lp34
(dp35
g6
F269.31000000000012
sg7
F799.47000000000025
sS'y'
F476.5800000000001
sS'x'
F389.16000000000008
sg8
g9
sasg8
g10
sg11
S'img_07610.jpg'
p36
sa(dp37
g3
(lp38
(dp39
g6
F246.75000000000006
sg7
F255.21000000000009
sS'y'
F327.12000000000006
sS'x'
F500.55000000000013
sg8
g9
sasg8
g10
sg11
S'img_07602.jpg'
p40
sa(dp41
g3
(lp42
(dp43
g6
F249.57000000000005
sg7
F156.51000000000005
sS'y'
F417.36000000000013
sS'x'
F328.53000000000009
sg8
g9
sasg8
g10
sg11
S'img_07595.jpg'
p44
sa(dp45
g3
(lp46
(dp47
g6
F246.75000000000011
sg7
F250.98000000000013
sS'y'
F403.2600000000001
sS'x'
F434.28000000000009
sg8
g9
sasg8
g10
sg11
S'img_07562.jpg'
p48
sa(dp49
g3
(lp50
(dp51
g6
F290.46000000000009
sg7
F201.63000000000011
sS'y'
F370.8300000000001
sS'x'
F424.41000000000008
sg8
g9
sasg8
g10
sg11
S'img_07431.jpg'
p52
sa(dp53
g3
(lp54
(dp55
g6
F287.6400000000001
sg7
F232.65000000000003
sS'y'
F334.17000000000007
sS'x'
F461.07000000000011
sg8
g9
sasg8
g10
sg11
S'img_07429.jpg'
p56
sa(dp57
g3
(lp58
(dp59
g6
F208.68000000000006
sg7
F359.55000000000007
sS'y'
F383.5200000000001
sS'x'
F342.63000000000011
sg8
g9
sasg8
g10
sg11
S'img_07388.jpg'
p60
sa(dp61
g3
(lp62
(dp63
g6
F300.33000000000004
sg7
F362.37000000000012
sS'y'
F408.90000000000009
sS'x'
F438.5100000000001
sg8
g9
sasg8
g10
sg11
S'img_07344.jpg'
p64
sa(dp65
g3
(lp66
(dp67
g6
F262.26000000000005
sg7
F234.06000000000006
sS'y'
F394.80000000000013
sS'x'
F446.97000000000014
sg8
g9
sasg8
g10
sg11
S'img_07341.jpg'
p68
sa(dp69
g3
(lp70
(dp71
g6
F307.38000000000005
sg7
F446.97000000000014
sS'y'
F476.5800000000001
sS'x'
F452.61000000000013
sg8
g9
sasg8
g10
sg11
S'img_07338.jpg'
p72
sa(dp73
g3
(lp74
(dp75
g6
F219.96000000000004
sg7
F349.68000000000006
sS'y'
F487.86000000000013
sS'x'
F582.33000000000015
sg8
g9
sasg8
g10
sg11
S'img_07261.jpg'
p76
sa(dp77
g3
(lp78
(dp79
g6
F291.87000000000012
sg7
F454.0200000000001
sS'y'
F497.73000000000013
sS'x'
F477.99000000000012
sg8
g9
sasg8
g10
sg11
S'img_07250.jpg'
p80
sa(dp81
g3
(lp82
(dp83
g6
F172.02000000000004
sg7
F276.36000000000001
sS'y'
F470.94000000000011
sS'x'
F659.88000000000022
sg8
g9
sasg8
g10
sg11
S'img_07233.jpg'
p84
sa(dp85
g3
(lp86
(dp87
g6
F174.84000000000003
sg7
F77.550000000000068
sS'y'
F184.71000000000004
sS'x'
F493.50000000000011
sg8
g9
sasg8
g10
sg11
S'img_07166.jpg'
p88
sa(dp89
g3
(lp90
(dp91
g6
F307.38000000000005
sg7
F358.1400000000001
sS'y'
F469.53000000000014
sS'x'
F573.87000000000012
sg8
g9
sasg8
g10
sg11
S'img_07116.jpg'
p92
sa(dp93
g3
(lp94
(dp95
g6
F283.41000000000003
sg7
F201.63000000000005
sS'y'
F375.06000000000012
sS'x'
F431.46000000000009
sg8
g9
sasg8
g10
sg11
S'img_07061.jpg'
p96
sa(dp97
g3
(lp98
(dp99
g6
F234.06000000000006
sg7
F298.92000000000007
sS'y'
F442.74000000000012
sS'x'
F617.58000000000015
sg8
g9
sasg8
g10
sg11
S'img_07038.jpg'
p100
sa(dp101
g3
(lp102
(dp103
g6
F229.8300000000001
sg7
F235.47000000000008
sS'y'
F356.73000000000008
sS'x'
F272.13000000000005
sg8
g9
sasg8
g10
sg11
S'img_06835.jpg'
p104
sa(dp105
g3
(lp106
(dp107
g6
F282
sg7
F444.15000000000009
sS'y'
F482.22000000000014
sS'x'
F454.0200000000001
sg8
g9
sasg8
g10
sg11
S'img_06805.jpg'
p108
sa(dp109
g3
(lp110
(dp111
g6
F217.1400000000001
sg7
F124.08000000000004
sS'y'
F328.53000000000009
sS'x'
F438.5100000000001
sg8
g9
sasg8
g10
sg11
S'img_06782.jpg'
p112
sa(dp113
g3
(lp114
(dp115
g6
F260.85000000000008
sg7
F434.28000000000009
sS'y'
F504.78000000000014
sS'x'
F458.25000000000011
sg8
g9
sasg8
g10
sg11
S'img_06765.jpg'
p116
sa(dp117
g3
(lp118
(dp119
g6
F176.25000000000006
sg7
F62.039999999999964
sS'y'
F217.14000000000004
sS'x'
F492.09000000000015
sg8
g9
sasg8
g10
sg11
S'img_06754.jpg'
p120
sa(dp121
g3
(lp122
(dp123
g6
F279.18000000000001
sg7
F448.38000000000011
sS'y'
F494.91000000000014
sS'x'
F448.38000000000011
sg8
g9
sasg8
g10
sg11
S'img_06724.jpg'
p124
sa(dp125
g3
(lp126
(dp127
g6
F289.05000000000007
sg7
F272.13000000000005
sS'y'
F377.88000000000011
sS'x'
F396.21000000000009
sg8
g9
sasg8
g10
sg11
S'img_06672.jpg'
p128
sa(dp129
g3
(lp130
(dp131
g6
F150.87000000000003
sg7
F59.21999999999997
sS'y'
F164.97000000000006
sS'x'
F494.91000000000014
sg8
g9
sasg8
g10
sg11
S'img_06660.jpg'
p132
sa(dp133
g3
(lp134
(dp135
g6
F303.15000000000003
sg7
F344.04000000000008
sS'y'
F470.94000000000011
sS'x'
F576.69000000000017
sg8
g9
sasg8
g10
sg11
S'img_06650.jpg'
p136
sa(dp137
g3
(lp138
(dp139
g6
F252.39000000000004
sg7
F355.32000000000011
sS'y'
F400.44000000000011
sS'x'
F404.67000000000013
sg8
g9
sasg8
g10
sg11
S'img_06635.jpg'
p140
sa(dp141
g3
(lp142
(dp143
g6
F293.28000000000009
sg7
F369.42000000000007
sS'y'
F487.86000000000013
sS'x'
F538.62000000000012
sg8
g9
sasg8
g10
sg11
S'img_06599.jpg'
p144
sa(dp145
g3
(lp146
(dp147
g6
F315.84000000000009
sg7
F353.91000000000008
sS'y'
F475.17000000000013
sS'x'
F572.46000000000015
sg8
g9
sasg8
g10
sg11
S'img_06434.jpg'
p148
sa(dp149
g3
(lp150
(dp151
g6
F253.80000000000007
sg7
F249.57000000000011
sS'y'
F403.2600000000001
sS'x'
F411.72000000000008
sg8
g9
sasg8
g10
sg11
S'img_06404.jpg'
p152
sa(dp153
g3
(lp154
(dp155
g6
F234.06000000000006
sg7
F277.76999999999998
sS'y'
F525.93000000000018
sS'x'
F685.26000000000022
sg8
g9
sasg8
g10
sg11
S'img_06085.jpg'
p156
sa(dp157
g3
(lp158
(dp159
g6
F310.20000000000005
sg7
F358.1400000000001
sS'y'
F473.7600000000001
sS'x'
F566.82000000000016
sg8
g9
sasg8
g10
sg11
S'img_06079.jpg'
p160
sa(dp161
g3
(lp162
(dp163
g6
F243.93000000000001
sg7
F287.6400000000001
sS'y'
F329.94000000000011
sS'x'
F511.83000000000015
sg8
g9
sasg8
g10
sg11
S'img_05787.jpg'
p164
sa(dp165
g3
(lp166
(dp167
g6
F338.40000000000009
sg7
F289.05000000000013
sS'y'
F403.2600000000001
sS'x'
F441.3300000000001
sg8
g9
sasg8
g10
sg11
S'img_05729.jpg'
p168
sa(dp169
g3
(lp170
(dp171
g6
F282.00000000000011
sg7
F331.35000000000002
sS'y'
F397.62000000000012
sS'x'
F332.7600000000001
sg8
g9
sasg8
g10
sg11
S'img_05695.jpg'
p172
sa(dp173
g3
(lp174
(dp175
g6
F267.90000000000009
sg7
F188.94
sS'y'
F379.29000000000008
sS'x'
F425.82000000000011
sg8
g9
sasg8
g10
sg11
S'img_05624.jpg'
p176
sa(dp177
g3
(lp178
(dp179
g6
F279.18000000000006
sg7
F138.18000000000006
sS'y'
F318.66000000000008
sS'x'
F446.97000000000014
sg8
g9
sasg8
g10
sg11
S'img_05592.jpg'
p180
sa(dp181
g3
(lp182
(dp183
g6
F245.34000000000009
sg7
F207.2700000000001
sS'y'
F307.38000000000005
sS'x'
F304.56000000000006
sg8
g9
sasg8
g10
sg11
S'img_05478.jpg'
p184
sa(dp185
g3
(lp186
(dp187
g6
F215.73000000000008
sg7
F282.00000000000011
sS'y'
F435.69000000000011
sS'x'
F497.73000000000013
sg8
g9
sasg8
g10
sg11
S'img_05451.jpg'
p188
sa(dp189
g3
(lp190
(dp191
g6
F245.34000000000003
sg7
F313.0200000000001
sS'y'
F387.75000000000011
sS'x'
F493.50000000000011
sg8
g9
sasg8
g10
sg11
S'img_05407.jpg'
p192
sa(dp193
g3
(lp194
(dp195
g6
F228.42000000000002
sg7
F301.74000000000007
sS'y'
F480.81000000000012
sS'x'
F459.66000000000014
sg8
g9
sasg8
g10
sg11
S'img_05370.jpg'
p196
sa(dp197
g3
(lp198
(dp199
g6
F329.94000000000011
sg7
F143.82000000000005
sS'y'
F380.7000000000001
sS'x'
F517.47000000000014
sg8
g9
sasg8
g10
sg11
S'img_05307.jpg'
p200
sa(dp201
g3
(lp202
(dp203
g6
F282.00000000000006
sg7
F444.15000000000009
sS'y'
F496.32000000000011
sS'x'
F448.38000000000011
sg8
g9
sasg8
g10
sg11
S'img_05184.jpg'
p204
sa(dp205
g3
(lp206
(dp207
g6
F266.49000000000007
sg7
F136.77000000000004
sS'y'
F327.12000000000006
sS'x'
F391.98000000000008
sg8
g9
sasg8
g10
sg11
S'img_05174.jpg'
p208
sa(dp209
g3
(lp210
(dp211
g6
F217.13999999999999
sg7
F320.07000000000011
sS'y'
F482.22000000000014
sS'x'
F451.2000000000001
sg8
g9
sasg8
g10
sg11
S'img_05170.jpg'
p212
sa(dp213
g3
(lp214
(dp215
g6
F321.48000000000008
sg7
F231.24000000000007
sS'y'
F406.0800000000001
sS'x'
F476.5800000000001
sg8
g9
sasg8
g10
sg11
S'img_05048.jpg'
p216
sa(dp217
g3
(lp218
(dp219
g6
F242.5200000000001
sg7
F373.65000000000015
sS'y'
F408.90000000000009
sS'x'
F480.81000000000012
sg8
g9
sasg8
g10
sg11
S'img_05014.jpg'
p220
sa(dp221
g3
(lp222
(dp223
g6
F252.3900000000001
sg7
F430.05000000000007
sS'y'
F503.37000000000012
sS'x'
F456.84000000000015
sg8
g9
sasg8
g10
sg11
S'img_04908.jpg'
p224
sa(dp225
g3
(lp226
(dp227
g6
F139.59000000000006
sg7
F146.63999999999999
sS'y'
F148.05000000000004
sS'x'
F492.09000000000015
sg8
g9
sasg8
g10
sg11
S'img_04765.jpg'
p228
sa(dp229
g3
(lp230
(dp231
g6
F241.11000000000001
sg7
F256.62000000000012
sS'y'
F507.60000000000014
sS'x'
F728.97000000000014
sg8
g9
sasg8
g10
sg11
S'img_04694.jpg'
p232
sa(dp233
g3
(lp234
(dp235
g6
F274.95000000000005
sg7
F241.11000000000013
sS'y'
F397.62000000000012
sS'x'
F493.50000000000011
sg8
g9
sasg8
g10
sg11
S'img_04681.jpg'
p236
sa(dp237
g3
(lp238
(dp239
g6
F176.25000000000006
sg7
F125.49000000000001
sS'y'
F318.66000000000008
sS'x'
F384.93000000000012
sg8
g9
sasg8
g10
sg11
S'img_04632.jpg'
p240
sa(dp241
g3
(lp242
(dp243
g6
F286.23000000000013
sg7
F222.78000000000009
sS'y'
F379.29000000000008
sS'x'
F507.60000000000014
sg8
g9
sasg8
g10
sg11
S'img_04394.jpg'
p244
sa(dp245
g3
(lp246
(dp247
g6
F259.44000000000011
sg7
F155.10000000000002
sS'y'
F391.98000000000008
sS'x'
F335.5800000000001
sg8
g9
sasg8
g10
sg11
S'img_04319.jpg'
p248
sa(dp249
g3
(lp250
(dp251
g6
F282.00000000000011
sg7
F204.45000000000005
sS'y'
F379.29000000000008
sS'x'
F521.70000000000016
sg8
g9
sasg8
g10
sg11
S'img_04316.jpg'
p252
sa(dp253
g3
(lp254
(dp255
g6
F276.36000000000007
sg7
F221.37000000000006
sS'y'
F396.21000000000009
sS'x'
F475.17000000000013
sg8
g9
sasg8
g10
sg11
S'img_04258.jpg'
p256
sa(dp257
g3
(lp258
(dp259
g6
F269.31
sg7
F451.2000000000001
sS'y'
F499.14000000000016
sS'x'
F445.56000000000012
sg8
g9
sasg8
g10
sg11
S'img_04255.jpg'
p260
sa(dp261
g3
(lp262
(dp263
g6
F286.23000000000008
sg7
F372.24000000000012
sS'y'
F490.68000000000012
sS'x'
F507.60000000000014
sg8
g9
sasg8
g10
sg11
S'img_04208.jpg'
p264
sa(dp265
g3
(lp266
(dp267
g6
F263.67000000000007
sg7
F157.92000000000002
sS'y'
F294.69000000000005
sS'x'
F466.71000000000009
sg8
g9
sasg8
g10
sg11
S'img_04096.jpg'
p268
sa(dp269
g3
(lp270
(dp271
g6
F249.57000000000005
sg7
F305.97000000000008
sS'y'
F444.15000000000009
sS'x'
F500.55000000000013
sg8
g9
sasg8
g10
sg11
S'img_04077.jpg'
p272
sa(dp273
g3
(lp274
(dp275
g6
F279.18000000000006
sg7
F200.22000000000008
sS'y'
F372.24000000000012
sS'x'
F425.82000000000011
sg8
g9
sasg8
g10
sg11
S'img_03968.jpg'
p276
sa(dp277
g3
(lp278
(dp279
g6
F291.87000000000012
sg7
F353.91000000000008
sS'y'
F473.7600000000001
sS'x'
F571.05000000000018
sg8
g9
sasg8
g10
sg11
S'img_03898.jpg'
p280
sa(dp281
g3
(lp282
(dp283
g6
F252.39000000000004
sg7
F776.91000000000008
sS'y'
F496.32000000000011
sS'x'
F401.85000000000008
sg8
g9
sasg8
g10
sg11
S'img_03824.jpg'
p284
sa(dp285
g3
(lp286
(dp287
g6
F314.43000000000012
sg7
F349.68000000000006
sS'y'
F465.30000000000013
sS'x'
F578.10000000000014
sg8
g9
sasg8
g10
sg11
S'img_03596.jpg'
p288
sa(dp289
g3
(lp290
(dp291
g6
F338.40000000000009
sg7
F207.26999999999998
sS'y'
F368.0100000000001
sS'x'
F516.06000000000017
sg8
g9
sasg8
g10
sg11
S'img_03464.jpg'
p292
sa(dp293
g3
(lp294
(dp295
g6
F219.96000000000009
sg7
F296.10000000000002
sS'y'
F461.07000000000011
sS'x'
F657.06000000000017
sg8
g9
sasg8
g10
sg11
S'img_03340.jpg'
p296
sa(dp297
g3
(lp298
(dp299
g6
F303.15000000000009
sg7
F169.20000000000005
sS'y'
F377.88000000000011
sS'x'
F523.11000000000013
sg8
g9
sasg8
g10
sg11
S'img_03301.jpg'
p300
sa(dp301
g3
(lp302
(dp303
g6
F314.43000000000012
sg7
F232.65000000000009
sS'y'
F441.3300000000001
sS'x'
F699.36000000000013
sg8
g9
sasg8
g10
sg11
S'img_03198.jpg'
p304
sa(dp305
g3
(lp306
(dp307
g6
F291.87000000000006
sg7
F332.7600000000001
sS'y'
F475.17000000000013
sS'x'
F583.74000000000012
sg8
g9
sasg8
g10
sg11
S'img_03185.jpg'
p308
sa(dp309
g3
(lp310
(dp311
g6
F265.08000000000004
sg7
F188.94000000000005
sS'y'
F518.88000000000011
sS'x'
F752.94000000000017
sg8
g9
sasg8
g10
sg11
S'img_02990.jpg'
p312
sa(dp313
g3
(lp314
(dp315
g6
F329.94000000000011
sg7
F159.33000000000004
sS'y'
F380.7000000000001
sS'x'
F507.60000000000014
sg8
g9
sasg8
g10
sg11
S'img_02976.jpg'
p316
sa(dp317
g3
(lp318
(dp319
g6
F310.20000000000005
sg7
F260.85000000000008
sS'y'
F377.88000000000011
sS'x'
F486.4500000000001
sg8
g9
sasg8
g10
sg11
S'img_02968.jpg'
p320
sa(dp321
g3
(lp322
(dp323
g6
F231.24000000000012
sg7
F365.19000000000005
sS'y'
F493.50000000000011
sS'x'
F492.09000000000015
sg8
g9
sasg8
g10
sg11
S'img_02966.jpg'
p324
sa(dp325
g3
(lp326
(dp327
g6
F258.03000000000003
sg7
F446.97000000000014
sS'y'
F506.19000000000011
sS'x'
F548.49000000000012
sg8
g9
sasg8
g10
sg11
S'img_02884.jpg'
p328
sa(dp329
g3
(lp330
(dp331
g6
F222.78000000000003
sg7
F208.68000000000012
sS'y'
F331.35000000000008
sS'x'
F470.94000000000011
sg8
g9
sasg8
g10
sg11
S'img_02845.jpg'
p332
sa(dp333
g3
(lp334
(dp335
g6
F294.69000000000011
sg7
F153.69000000000005
sS'y'
F376.47000000000008
sS'x'
F517.47000000000014
sg8
g9
sasg8
g10
sg11
S'img_02809.jpg'
p336
sa(dp337
g3
(lp338
(dp339
g6
F107.16000000000005
sg7
F117.03000000000009
sS'y'
F215.73000000000005
sS'x'
F617.58000000000015
sg8
g9
sasg8
g10
sg11
S'img_02785.jpg'
p340
sa(dp341
g3
(lp342
(dp343
g6
F225.60000000000008
sg7
F253.80000000000007
sS'y'
F500.55000000000013
sS'x'
F673.98000000000013
sg8
g9
sasg8
g10
sg11
S'img_02550.jpg'
p344
sa(dp345
g3
(lp346
(dp347
g6
F180.48000000000008
sg7
F210.09000000000003
sS'y'
F336.99000000000007
sS'x'
F507.60000000000014
sg8
g9
sasg8
g10
sg11
S'img_02516.jpg'
p348
sa(dp349
g3
(lp350
(dp351
g6
F287.6400000000001
sg7
F152.27999999999997
sS'y'
F377.88000000000011
sS'x'
F521.70000000000016
sg8
g9
sasg8
g10
sg11
S'img_02505.jpg'
p352
sa(dp353
g3
(lp354
(dp355
g6
F283.41000000000003
sg7
F195.99000000000001
sS'y'
F375.06000000000012
sS'x'
F427.23000000000013
sg8
g9
sasg8
g10
sg11
S'img_02427.jpg'
p356
sa(dp357
g3
(lp358
(dp359
g6
F246.75000000000011
sg7
F248.16000000000008
sS'y'
F444.15000000000009
sS'x'
F672.57000000000016
sg8
g9
sasg8
g10
sg11
S'img_02411.jpg'
p360
sa(dp361
g3
(lp362
(dp363
g6
F263.67000000000013
sg7
F820.62000000000012
sS'y'
F480.81000000000012
sS'x'
F377.88000000000011
sg8
g9
sasg8
g10
sg11
S'img_02355.jpg'
p364
sa(dp365
g3
(lp366
(dp367
g6
F241.11000000000007
sg7
F294.69000000000005
sS'y'
F431.46000000000009
sS'x'
F623.22000000000014
sg8
g9
sasg8
g10
sg11
S'img_02311.jpg'
p368
sa(dp369
g3
(lp370
(dp371
g6
F200.22000000000003
sg7
F352.50000000000011
sS'y'
F397.62000000000012
sS'x'
F369.42000000000007
sg8
g9
sasg8
g10
sg11
S'img_02275.jpg'
p372
sa(dp373
g3
(lp374
(dp375
g6
F229.83000000000004
sg7
F287.6400000000001
sS'y'
F444.15000000000009
sS'x'
F662.70000000000016
sg8
g9
sasg8
g10
sg11
S'img_02262.jpg'
p376
sa(dp377
g3
(lp378
(dp379
g6
F332.7600000000001
sg7
F159.33000000000004
sS'y'
F373.65000000000009
sS'x'
F509.0100000000001
sg8
g9
sasg8
g10
sg11
S'img_02258.jpg'
p380
sa(dp381
g3
(lp382
(dp383
g6
F262.26000000000005
sg7
F796.6500000000002
sS'y'
F486.4500000000001
sS'x'
F403.2600000000001
sg8
g9
sasg8
g10
sg11
S'img_02255.jpg'
p384
sa(dp385
g3
(lp386
(dp387
g6
F260.85000000000002
sg7
F297.51000000000005
sS'y'
F363.78000000000009
sS'x'
F307.38000000000005
sg8
g9
sasg8
g10
sg11
S'img_02225.jpg'
p388
sa(dp389
g3
(lp390
(dp391
g6
F315.84000000000009
sg7
F320.07000000000005
sS'y'
F400.44000000000011
sS'x'
F438.5100000000001
sg8
g9
sasg8
g10
sg11
S'img_02218.jpg'
p392
sa(dp393
g3
(lp394
(dp395
g6
F88.830000000000041
sg7
F117.03000000000003
sS'y'
F150.87000000000003
sS'x'
F504.78000000000014
sg8
g9
sasg8
g10
sg11
S'img_02121.jpg'
p396
sa(dp397
g3
(lp398
(dp399
g6
F304.56000000000012
sg7
F135.36000000000001
sS'y'
F366.60000000000008
sS'x'
F351.09000000000009
sg8
g9
sasg8
g10
sg11
S'img_02113.jpg'
p400
sa(dp401
g3
(lp402
(dp403
g6
F277.7700000000001
sg7
F273.54000000000008
sS'y'
F514.65000000000009
sS'x'
F614.7600000000001
sg8
g9
sasg8
g10
sg11
S'img_02055.jpg'
p404
sa(dp405
g3
(lp406
(dp407
g6
F179.07000000000005
sg7
F203.04000000000008
sS'y'
F487.86000000000013
sS'x'
F586.56000000000017
sg8
g9
sasg8
g10
sg11
S'img_02038.jpg'
p408
sa(dp409
g3
(lp410
(dp411
g6
F228.42000000000013
sg7
F277.77000000000004
sS'y'
F382.11000000000007
sS'x'
F510.42000000000013
sg8
g9
sasg8
g10
sg11
S'img_01974.jpg'
p412
sa(dp413
g3
(lp414
(dp415
g6
F181.89000000000004
sg7
F283.41000000000008
sS'y'
F184.71000000000004
sS'x'
F596.43000000000018
sg8
g9
sasg8
g10
sg11
S'img_01959.jpg'
p416
sa(dp417
g3
(lp418
(dp419
g6
F253.80000000000013
sg7
F430.05000000000013
sS'y'
F500.55000000000013
sS'x'
F470.94000000000011
sg8
g9
sasg8
g10
sg11
S'img_01938.jpg'
p420
sa(dp421
g3
(lp422
(dp423
g6
F250.98000000000008
sg7
F157.92000000000002
sS'y'
F311.61000000000007
sS'x'
F305.97000000000008
sg8
g9
sasg8
g10
sg11
S'img_01854.jpg'
p424
sa(dp425
g3
(lp426
(dp427
g6
F225.60000000000008
sg7
F262.2600000000001
sS'y'
F445.56000000000012
sS'x'
F662.70000000000016
sg8
g9
sasg8
g10
sg11
S'img_01848.jpg'
p428
sa(dp429
g3
(lp430
(dp431
g6
F270.72000000000003
sg7
F338.40000000000009
sS'y'
F417.36000000000013
sS'x'
F454.0200000000001
sg8
g9
sasg8
g10
sg11
S'img_01840.jpg'
p432
sa(dp433
g3
(lp434
(dp435
g6
F277.77000000000004
sg7
F304.56000000000006
sS'y'
F404.67000000000013
sS'x'
F417.36000000000013
sg8
g9
sasg8
g10
sg11
S'img_01835.jpg'
p436
sa(dp437
g3
(lp438
(dp439
g6
F273.54000000000008
sg7
F193.17000000000007
sS'y'
F373.65000000000009
sS'x'
F427.23000000000013
sg8
g9
sasg8
g10
sg11
S'img_01808.jpg'
p440
sa(dp441
g3
(lp442
(dp443
g6
F286.23000000000008
sg7
F260.85000000000008
sS'y'
F411.72000000000008
sS'x'
F496.32000000000011
sg8
g9
sasg8
g10
sg11
S'img_01783.jpg'
p444
sa(dp445
g3
(lp446
(dp447
g6
F283.41000000000008
sg7
F451.20000000000016
sS'y'
F482.22000000000014
sS'x'
F448.38000000000011
sg8
g9
sasg8
g10
sg11
S'img_01721.jpg'
p448
sa(dp449
g3
(lp450
(dp451
g6
F246.75000000000006
sg7
F459.66000000000008
sS'y'
F494.91000000000014
sS'x'
F569.6400000000001
sg8
g9
sasg8
g10
sg11
S'img_01718.jpg'
p452
sa(dp453
g3
(lp454
(dp455
g6
F205.86000000000007
sg7
F363.78000000000003
sS'y'
F382.11000000000007
sS'x'
F320.07000000000011
sg8
g9
sasg8
g10
sg11
S'img_01712.jpg'
p456
sa(dp457
g3
(lp458
(dp459
g6
F338.40000000000009
sg7
F291.87
sS'y'
F438.5100000000001
sS'x'
F671.1600000000002
sg8
g9
sasg8
g10
sg11
S'img_01658.jpg'
p460
sa(dp461
g3
(lp462
(dp463
g6
F274.95000000000005
sg7
F255.21000000000004
sS'y'
F528.75000000000011
sS'x'
F623.22000000000014
sg8
g9
sasg8
g10
sg11
S'img_01535.jpg'
p464
sa(dp465
g3
(lp466
(dp467
g6
F260.85000000000008
sg7
F376.47000000000008
sS'y'
F414.54000000000013
sS'x'
F439.92000000000013
sg8
g9
sasg8
g10
sg11
S'img_01429.jpg'
p468
sa(dp469
g3
(lp470
(dp471
g6
F177.66000000000003
sg7
F128.31
sS'y'
F322.8900000000001
sS'x'
F338.40000000000009
sg8
g9
sasg8
g10
sg11
S'img_01346.jpg'
p472
sa(dp473
g3
(lp474
(dp475
g6
F270.72000000000003
sg7
F462.48000000000008
sS'y'
F503.37000000000012
sS'x'
F485.04000000000013
sg8
g9
sasg8
g10
sg11
S'img_01301.jpg'
p476
sa(dp477
g3
(lp478
(dp479
g6
F195.99000000000001
sg7
F270.72000000000003
sS'y'
F492.09000000000015
sS'x'
F671.1600000000002
sg8
g9
sasg8
g10
sg11
S'img_01270.jpg'
p480
sa(dp481
g3
(lp482
(dp483
g6
F203.04000000000002
sg7
F307.38
sS'y'
F469.53000000000014
sS'x'
F655.6500000000002
sg8
g9
sasg8
g10
sg11
S'img_01235.jpg'
p484
sa(dp485
g3
(lp486
(dp487
g6
F283.41000000000008
sg7
F362.37000000000006
sS'y'
F417.36000000000013
sS'x'
F449.79000000000013
sg8
g9
sasg8
g10
sg11
S'img_01174.jpg'
p488
sa(dp489
g3
(lp490
(dp491
g6
F234.06000000000006
sg7
F265.08000000000004
sS'y'
F509.0100000000001
sS'x'
F676.80000000000018
sg8
g9
sasg8
g10
sg11
S'img_01156.jpg'
p492
sa(dp493
g3
(lp494
(dp495
g6
F188.94000000000005
sg7
F270.72000000000014
sS'y'
F334.17000000000007
sS'x'
F538.62000000000012
sg8
g9
sasg8
g10
sg11
S'img_01087.jpg'
p496
sa(dp497
g3
(lp498
(dp499
g6
F280.59000000000009
sg7
F194.58000000000004
sS'y'
F376.47000000000008
sS'x'
F513.24000000000012
sg8
g9
sasg8
g10
sg11
S'img_01076.jpg'
p500
sa(dp501
g3
(lp502
(dp503
g6
F269.31000000000006
sg7
F452.61000000000013
sS'y'
F493.50000000000011
sS'x'
F531.57000000000016
sg8
g9
sasg8
g10
sg11
S'img_01064.jpg'
p504
sa(dp505
g3
(lp506
(dp507
g6
F260.85000000000008
sg7
F802.29000000000019
sS'y'
F486.4500000000001
sS'x'
F396.21000000000009
sg8
g9
sasg8
g10
sg11
S'img_00968.jpg'
p508
sa(dp509
g3
(lp510
(dp511
g6
F266.49000000000007
sg7
F321.48000000000013
sS'y'
F490.68000000000012
sS'x'
F754.35000000000025
sg8
g9
sasg8
g10
sg11
S'img_00803.jpg'
p512
sa(dp513
g3
(lp514
(dp515
g6
F260.85000000000002
sg7
F446.97000000000008
sS'y'
F497.73000000000013
sS'x'
F449.79000000000013
sg8
g9
sasg8
g10
sg11
S'img_00783.jpg'
p516
sa(dp517
g3
(lp518
(dp519
g6
F255.21000000000009
sg7
F335.5800000000001
sS'y'
F455.43000000000012
sS'x'
F449.79000000000013
sg8
g9
sasg8
g10
sg11
S'img_00680.jpg'
p520
sa(dp521
g3
(lp522
(dp523
g6
F262.26000000000005
sg7
F287.63999999999999
sS'y'
F435.69000000000011
sS'x'
F635.9100000000002
sg8
g9
sasg8
g10
sg11
S'img_00647.jpg'
p524
sa(dp525
g3
(lp526
(dp527
g6
F321.48000000000002
sg7
F455.43000000000018
sS'y'
F501.96000000000015
sS'x'
F631.68000000000018
sg8
g9
sasg8
g10
sg11
S'img_00506.jpg'
p528
sa(dp529
g3
(lp530
(dp531
g6
F235.47000000000008
sg7
F375.06000000000012
sS'y'
F410.31000000000012
sS'x'
F480.81000000000012
sg8
g9
sasg8
g10
sg11
S'img_00404.jpg'
p532
sa(dp533
g3
(lp534
(dp535
g6
F346.86000000000007
sg7
F162.15000000000009
sS'y'
F375.06000000000012
sS'x'
F514.65000000000009
sg8
g9
sasg8
g10
sg11
S'img_00395.jpg'
p536
sa(dp537
g3
(lp538
(dp539
g6
F353.91000000000008
sg7
F311.61000000000001
sS'y'
F389.16000000000008
sS'x'
F417.36000000000013
sg8
g9
sasg8
g10
sg11
S'img_00362.jpg'
p540
sa(dp541
g3
(lp542
(dp543
g6
F274.9500000000001
sg7
F373.65000000000009
sS'y'
F470.94000000000011
sS'x'
F528.75000000000011
sg8
g9
sasg8
g10
sg11
S'img_00298.jpg'
p544
sa(dp545
g3
(lp546
(dp547
g6
F282
sg7
F227.01000000000005
sS'y'
F372.24000000000012
sS'x'
F421.59000000000009
sg8
g9
sasg8
g10
sg11
S'img_00253.jpg'
p548
sa(dp549
g3
(lp550
(dp551
g6
F325.71000000000009
sg7
F184.71000000000004
sS'y'
F376.47000000000008
sS'x'
F497.73000000000013
sg8
g9
sasg8
g10
sg11
S'img_00238.jpg'
p552
sa(dp553
g3
(lp554
(dp555
g6
F155.10000000000002
sg7
F136.77000000000004
sS'y'
F136.77000000000004
sS'x'
F469.53000000000014
sg8
g9
sasg8
g10
sg11
S'img_00047.jpg'
p556
sa(dp557
g3
(lp558
(dp559
g6
F198.81
sg7
F225.60000000000008
sS'y'
F315.84000000000009
sS'x'
F360.96000000000009
sg8
g9
sasg8
g10
sg11
S'img_00014.jpg'
p560
sa(dp561
g3
(lp562
(dp563
g6
F212.91000000000003
sg7
F394.80000000000018
sS'y'
F121.26000000000003
sS'x'
F751.5300000000002
sg8
g9
sa(dp564
g6
F190.35000000000005
sg7
F375.06000000000006
sS'y'
F32.430000000000007
sS'x'
F188.94000000000005
sg8
g9
sasg8
g10
sg11
S'img_07911.jpg'
p565
sa(dp566
g3
(lp567
(dp568
g6
F169.2000000000001
sg7
F331.35000000000014
sS'y'
F346.86000000000007
sS'x'
F86.010000000000019
sg8
g9
sasg8
g10
sg11
S'img_07901.jpg'
p569
sa(dp570
g3
(lp571
(dp572
g6
F184.70999999999998
sg7
F396.21000000000015
sS'y'
F439.92000000000013
sS'x'
F544.2600000000001
sg8
g9
sasg8
g10
sg11
S'img_07828.jpg'
p573
sa(dp574
g3
(lp575
(dp576
g6
F107.16000000000004
sg7
F207.2700000000001
sS'y'
F38.070000000000007
sS'x'
F368.0100000000001
sg8
g9
sasg8
g10
sg11
S'img_07759.jpg'
p577
sa(dp578
g3
(lp579
(dp580
g6
F387.75000000000011
sg7
F559.76999999999998
sS'y'
F101.52000000000002
sS'x'
F504.78000000000014
sg8
g9
sasg8
g10
sg11
S'img_07752.jpg'
p581
sa(dp582
g3
(lp583
(dp584
g6
F101.52000000000004
sg7
F164.97000000000003
sS'y'
F35.250000000000007
sS'x'
F387.75000000000011
sg8
g9
sasg8
g10
sg11
S'img_07747.jpg'
p585
sa(dp586
g3
(lp587
(dp588
g6
F108.57000000000002
sg7
F211.50000000000006
sS'y'
F115.62000000000003
sS'x'
F396.21000000000009
sg8
g9
sasg8
g10
sg11
S'img_07742.jpg'
p589
sa(dp590
g3
(lp591
(dp592
g6
F218.55000000000007
sg7
F404.67000000000013
sS'y'
F286.23000000000008
sS'x'
F2.8200000000000007
sg8
g9
sasg8
g10
sg11
S'img_07731.jpg'
p593
sa(dp594
g3
(lp595
(dp596
g6
F203.04000000000002
sg7
F366.60000000000002
sS'y'
F101.52000000000002
sS'x'
F741.6600000000002
sg8
g9
sasg8
g10
sg11
S'img_07706.jpg'
p597
sa(dp598
g3
(lp599
(dp600
g6
F269.31000000000012
sg7
F425.82000000000011
sS'y'
F286.23000000000008
sS'x'
F26.790000000000006
sg8
g9
sasg8
g10
sg11
S'img_07644.jpg'
p601
sa(dp602
g3
(lp603
(dp604
g6
F235.47000000000003
sg7
F417.36000000000013
sS'y'
F297.5100000000001
sS'x'
F25.380000000000006
sg8
g9
sasg8
g10
sg11
S'img_07624.jpg'
p605
sa(dp606
g3
(lp607
(dp608
g6
F267.90000000000009
sg7
F435.69000000000017
sS'y'
F248.16000000000005
sS'x'
F170.61000000000004
sg8
g9
sasg8
g10
sg11
S'img_07609.jpg'
p609
sa(dp610
g3
(lp611
(dp612
g6
F193.17000000000004
sg7
F270.72000000000014
sS'y'
F62.040000000000013
sS'x'
F583.74000000000012
sg8
g9
sa(dp613
g6
F294.69000000000005
sg7
F427.23000000000002
sS'y'
F128.31000000000003
sS'x'
F720.51000000000022
sg8
g9
sasg8
g10
sg11
S'img_07588.jpg'
p614
sa(dp615
g3
(lp616
(dp617
g6
F207.2700000000001
sg7
F308.79000000000008
sS'y'
F314.43000000000006
sS'x'
F342.63000000000011
sg8
g9
sasg8
g10
sg11
S'img_07571.jpg'
p618
sa(dp619
g3
(lp620
(dp621
g6
F164.97000000000003
sg7
F259.44000000000005
sS'y'
F331.35000000000008
sS'x'
F775.50000000000023
sg8
g9
sasg8
g10
sg11
S'img_07555.jpg'
p622
sa(dp623
g3
(lp624
(dp625
g6
F298.92000000000013
sg7
F410.31000000000012
sS'y'
F455.43000000000012
sS'x'
F499.14000000000016
sg8
g9
sasg8
g10
sg11
S'img_07535.jpg'
p626
sa(dp627
g3
(lp628
(dp629
g6
F217.1400000000001
sg7
F170.61000000000001
sS'y'
F282.00000000000006
sS'x'
F747.30000000000018
sg8
g9
sasg8
g10
sg11
S'img_07513.jpg'
p630
sa(dp631
g3
(lp632
(dp633
g6
F176.25000000000006
sg7
F386.34000000000015
sS'y'
F479.40000000000015
sS'x'
F607.71000000000015
sg8
g9
sasg8
g10
sg11
S'img_07510.jpg'
p634
sa(dp635
g3
(lp636
(dp637
g6
F170.61000000000007
sg7
F179.07000000000005
sS'y'
F307.38000000000005
sS'x'
F714.87000000000023
sg8
g9
sasg8
g10
sg11
S'img_07462.jpg'
p638
sa(dp639
g3
(lp640
(dp641
g6
F214.32000000000005
sg7
F417.36000000000001
sS'y'
F117.03000000000003
sS'x'
F575.2800000000002
sg8
g9
sasg8
g10
sg11
S'img_07400.jpg'
p642
sa(dp643
g3
(lp644
(dp645
g6
F258.03000000000009
sg7
F369.42000000000007
sS'y'
F115.62000000000003
sS'x'
F287.6400000000001
sg8
g9
sasg8
g10
sg11
S'img_07395.jpg'
p646
sa(dp647
g3
(lp648
(dp649
g6
F293.28000000000003
sg7
F444.15000000000015
sS'y'
F321.48000000000008
sS'x'
F121.26000000000003
sg8
g9
sasg8
g10
sg11
S'img_07383.jpg'
p650
sa(dp651
g3
(lp652
(dp653
g6
F263.67000000000007
sg7
F531.57000000000016
sS'y'
F139.59000000000003
sS'x'
F291.87000000000006
sg8
g9
sasg8
g10
sg11
S'img_07369.jpg'
p654
sa(dp655
g3
(lp656
(dp657
g6
F167.79000000000002
sg7
F246.75000000000006
sS'y'
F332.7600000000001
sS'x'
F112.80000000000003
sg8
g9
sasg8
g10
sg11
S'img_07340.jpg'
p658
sa(dp659
g3
(lp660
(dp661
g6
F365.19000000000005
sg7
F655.65000000000009
sS'y'
F164.97000000000006
sS'x'
F377.88000000000011
sg8
g9
sasg8
g10
sg11
S'img_07309.jpg'
p662
sa(dp663
g3
(lp664
(dp665
g6
F174.84000000000003
sg7
F465.30000000000013
sS'y'
F575.2800000000002
sS'x'
F315.84000000000009
sg8
g9
sasg8
g10
sg11
S'img_07290.jpg'
p666
sa(dp667
g3
(lp668
(dp669
g6
F198.81000000000006
sg7
F269.31000000000017
sS'y'
F544.2600000000001
sS'x'
F762.81000000000017
sg8
g9
sasg8
g10
sg11
S'img_07287.jpg'
p670
sa(dp671
g3
(lp672
(dp673
g6
F239.7000000000001
sg7
F119.85000000000002
sS'y'
F400.44000000000011
sS'x'
F833.31000000000017
sg8
g9
sasg8
g10
sg11
S'img_07275.jpg'
p674
sa(dp675
g3
(lp676
(dp677
g6
F160.74000000000001
sg7
F203.04000000000008
sS'y'
F339.81000000000012
sS'x'
F757.17000000000019
sg8
g9
sasg8
g10
sg11
S'img_07273.jpg'
p678
sa(dp679
g3
(lp680
(dp681
g6
F314.43000000000006
sg7
F548.49000000000024
sS'y'
F186.12000000000006
sS'x'
F617.58000000000015
sg8
g9
sa(dp682
g6
F169.20000000000005
sg7
F307.38
sS'y'
F69.090000000000018
sS'x'
F561.18000000000018
sg8
g9
sasg8
g10
sg11
S'img_07217.jpg'
p683
sa(dp684
g3
(lp685
(dp686
g6
F188.94000000000005
sg7
F241.11000000000007
sS'y'
F300.3300000000001
sS'x'
F201.63000000000005
sg8
g9
sasg8
g10
sg11
S'img_07208.jpg'
p687
sa(dp688
g3
(lp689
(dp690
g6
F232.65000000000009
sg7
F266.49000000000012
sS'y'
F428.6400000000001
sS'x'
F627.45000000000016
sg8
g9
sasg8
g10
sg11
S'img_07130.jpg'
p691
sa(dp692
g3
(lp693
(dp694
g6
F181.89000000000004
sg7
F298.92000000000007
sS'y'
F300.3300000000001
sS'x'
F121.26000000000003
sg8
g9
sasg8
g10
sg11
S'img_07119.jpg'
p695
sa(dp696
g3
(lp697
(dp698
g6
F173.43000000000006
sg7
F300.3300000000001
sS'y'
F334.17000000000007
sS'x'
F114.21000000000004
sg8
g9
sasg8
g10
sg11
S'img_07109.jpg'
p699
sa(dp700
g3
(lp701
(dp702
g6
F135.36000000000007
sg7
F272.13000000000011
sS'y'
F317.25000000000006
sS'x'
F86.010000000000019
sg8
g9
sa(dp703
g6
F200.22000000000006
sg7
F494.91000000000008
sS'y'
F54.990000000000016
sS'x'
F332.7600000000001
sg8
g9
sasg8
g10
sg11
S'img_07107.jpg'
p704
sa(dp705
g3
(lp706
(dp707
g6
F224.19000000000011
sg7
F138.17999999999995
sS'y'
F396.21000000000009
sS'x'
F824.85000000000025
sg8
g9
sasg8
g10
sg11
S'img_07067.jpg'
p708
sa(dp709
g3
(lp710
(dp711
g6
F211.50000000000006
sg7
F472.35000000000008
sS'y'
F267.90000000000009
sS'x'
F166.38000000000005
sg8
g9
sasg8
g10
sg11
S'img_07055.jpg'
p712
sa(dp713
g3
(lp714
(dp715
g6
F115.62000000000002
sg7
F64.860000000000014
sS'y'
F25.380000000000006
sS'x'
F838.95000000000027
sg8
g9
sasg8
g10
sg11
S'img_07025.jpg'
p716
sa(dp717
g3
(lp718
(dp719
g6
F225.60000000000002
sg7
F115.62
sS'y'
F407.49000000000012
sS'x'
F837.54000000000019
sg8
g9
sasg8
g10
sg11
S'img_07024.jpg'
p720
sa(dp721
g3
(lp722
(dp723
g6
F256.62000000000006
sg7
F462.48000000000013
sS'y'
F290.46000000000009
sS'x'
F139.59000000000003
sg8
g9
sasg8
g10
sg11
S'img_07017.jpg'
p724
sa(dp725
g3
(lp726
sg8
g10
sg11
S'img_06971.jpg'
p727
sa(dp728
g3
(lp729
(dp730
g6
F181.89000000000004
sg7
F255.21000000000009
sS'y'
F260.85000000000008
sS'x'
F2.8200000000000007
sg8
g9
sasg8
g10
sg11
S'img_06920.jpg'
p731
sa(dp732
g3
(lp733
(dp734
g6
F229.83000000000004
sg7
F414.54000000000008
sS'y'
F283.41000000000008
sS'x'
F4.2300000000000013
sg8
g9
sasg8
g10
sg11
S'img_06919.jpg'
p735
sa(dp736
g3
(lp737
(dp738
g6
F167.79000000000005
sg7
F266.49000000000012
sS'y'
F83.190000000000026
sS'x'
F573.87000000000012
sg8
g9
sa(dp739
g6
F267.90000000000009
sg7
F423.00000000000011
sS'y'
F135.36000000000004
sS'x'
F741.6600000000002
sg8
g9
sasg8
g10
sg11
S'img_06858.jpg'
p740
sa(dp741
g3
(lp742
(dp743
g6
F179.07000000000011
sg7
F401.85000000000014
sS'y'
F336.99000000000007
sS'x'
F229.83000000000007
sg8
g9
sasg8
g10
sg11
S'img_06841.jpg'
p744
sa(dp745
g3
(lp746
(dp747
g6
F118.44000000000005
sg7
F315.84000000000003
sS'y'
F349.68000000000006
sS'x'
F150.87000000000003
sg8
g9
sasg8
g10
sg11
S'img_06824.jpg'
p748
sa(dp749
g3
(lp750
(dp751
g6
F145.23000000000002
sg7
F280.59000000000003
sS'y'
F351.09000000000009
sS'x'
F101.52000000000002
sg8
g9
sasg8
g10
sg11
S'img_06822.jpg'
p752
sa(dp753
g3
(lp754
(dp755
g6
F224.19
sg7
F131.13
sS'y'
F404.67000000000013
sS'x'
F831.9000000000002
sg8
g9
sasg8
g10
sg11
S'img_06819.jpg'
p756
sa(dp757
g3
(lp758
(dp759
g6
F156.50999999999999
sg7
F258.03000000000009
sS'y'
F339.81000000000012
sS'x'
F2.8200000000000007
sg8
g9
sasg8
g10
sg11
S'img_06771.jpg'
p760
sa(dp761
g3
(lp762
(dp763
g6
F259.44
sg7
F676.80000000000007
sS'y'
F489.27000000000015
sS'x'
F600.6600000000002
sg8
g9
sasg8
g10
sg11
S'img_06769.jpg'
p764
sa(dp765
g3
(lp766
sg8
g10
sg11
S'img_06763.jpg'
p767
sa(dp768
g3
(lp769
sg8
g10
sg11
S'img_06729.jpg'
p770
sa(dp771
g3
(lp772
sg8
g10
sg11
S'img_06666.jpg'
p773
sa(dp774
g3
(lp775
sg8
g10
sg11
S'img_06592.jpg'
p776
sa(dp777
g3
(lp778
sg8
g10
sg11
S'img_06586.jpg'
p779
sa(dp780
g3
(lp781
sg8
g10
sg11
S'img_06576.jpg'
p782
sa(dp783
g3
(lp784
sg8
g10
sg11
S'img_06567.jpg'
p785
sa(dp786
g3
(lp787
sg8
g10
sg11
S'img_06550.jpg'
p788
sa(dp789
g3
(lp790
sg8
g10
sg11
S'img_06535.jpg'
p791
sa(dp792
g3
(lp793
sg8
g10
sg11
S'img_06502.jpg'
p794
sa(dp795
g3
(lp796
sg8
g10
sg11
S'img_06500.jpg'
p797
sa(dp798
g3
(lp799
sg8
g10
sg11
S'img_06487.jpg'
p800
sa(dp801
g3
(lp802
sg8
g10
sg11
S'img_06481.jpg'
p803
sa(dp804
g3
(lp805
sg8
g10
sg11
S'img_06452.jpg'
p806
sa(dp807
g3
(lp808
sg8
g10
sg11
S'img_06428.jpg'
p809
sa(dp810
g3
(lp811
sg8
g10
sg11
S'img_06418.jpg'
p812
sa(dp813
g3
(lp814
sg8
g10
sg11
S'img_06417.jpg'
p815
sa(dp816
g3
(lp817
sg8
g10
sg11
S'img_06415.jpg'
p818
sa(dp819
g3
(lp820
sg8
g10
sg11
S'img_06395.jpg'
p821
sa(dp822
g3
(lp823
sg8
g10
sg11
S'img_06374.jpg'
p824
sa(dp825
g3
(lp826
sg8
g10
sg11
S'img_06339.jpg'
p827
sa(dp828
g3
(lp829
sg8
g10
sg11
S'img_06323.jpg'
p830
sa(dp831
g3
(lp832
sg8
g10
sg11
S'img_06304.jpg'
p833
sa(dp834
g3
(lp835
sg8
g10
sg11
S'img_06289.jpg'
p836
sa(dp837
g3
(lp838
sg8
g10
sg11
S'img_06271.jpg'
p839
sa(dp840
g3
(lp841
sg8
g10
sg11
S'img_06234.jpg'
p842
sa(dp843
g3
(lp844
sg8
g10
sg11
S'img_06226.jpg'
p845
sa(dp846
g3
(lp847
sg8
g10
sg11
S'img_06198.jpg'
p848
sa(dp849
g3
(lp850
sg8
g10
sg11
S'img_06196.jpg'
p851
sa(dp852
g3
(lp853
sg8
g10
sg11
S'img_06171.jpg'
p854
sa(dp855
g3
(lp856
sg8
g10
sg11
S'img_06156.jpg'
p857
sa(dp858
g3
(lp859
sg8
g10
sg11
S'img_06154.jpg'
p860
sa(dp861
g3
(lp862
sg8
g10
sg11
S'img_06152.jpg'
p863
sa(dp864
g3
(lp865
sg8
g10
sg11
S'img_06145.jpg'
p866
sa(dp867
g3
(lp868
sg8
g10
sg11
S'img_06138.jpg'
p869
sa(dp870
g3
(lp871
sg8
g10
sg11
S'img_06132.jpg'
p872
sa(dp873
g3
(lp874
sg8
g10
sg11
S'img_06094.jpg'
p875
sa(dp876
g3
(lp877
sg8
g10
sg11
S'img_06092.jpg'
p878
sa(dp879
g3
(lp880
sg8
g10
sg11
S'img_06072.jpg'
p881
sa(dp882
g3
(lp883
sg8
g10
sg11
S'img_06054.jpg'
p884
sa(dp885
g3
(lp886
sg8
g10
sg11
S'img_06053.jpg'
p887
sa(dp888
g3
(lp889
sg8
g10
sg11
S'img_06027.jpg'
p890
sa(dp891
g3
(lp892
sg8
g10
sg11
S'img_05975.jpg'
p893
sa(dp894
g3
(lp895
sg8
g10
sg11
S'img_05965.jpg'
p896
sa(dp897
g3
(lp898
sg8
g10
sg11
S'img_05913.jpg'
p899
sa(dp900
g3
(lp901
sg8
g10
sg11
S'img_05892.jpg'
p902
sa(dp903
g3
(lp904
sg8
g10
sg11
S'img_05837.jpg'
p905
sa(dp906
g3
(lp907
sg8
g10
sg11
S'img_05781.jpg'
p908
sa(dp909
g3
(lp910
sg8
g10
sg11
S'img_05774.jpg'
p911
sa(dp912
g3
(lp913
sg8
g10
sg11
S'img_05737.jpg'
p914
sa(dp915
g3
(lp916
sg8
g10
sg11
S'img_05676.jpg'
p917
sa(dp918
g3
(lp919
sg8
g10
sg11
S'img_05656.jpg'
p920
sa(dp921
g3
(lp922
sg8
g10
sg11
S'img_05633.jpg'
p923
sa(dp924
g3
(lp925
sg8
g10
sg11
S'img_05632.jpg'
p926
sa(dp927
g3
(lp928
sg8
g10
sg11
S'img_05628.jpg'
p929
sa(dp930
g3
(lp931
sg8
g10
sg11
S'img_05617.jpg'
p932
sa(dp933
g3
(lp934
sg8
g10
sg11
S'img_05574.jpg'
p935
sa(dp936
g3
(lp937
sg8
g10
sg11
S'img_05506.jpg'
p938
sa(dp939
g3
(lp940
sg8
g10
sg11
S'img_05460.jpg'
p941
sa(dp942
g3
(lp943
sg8
g10
sg11
S'img_05417.jpg'
p944
sa(dp945
g3
(lp946
sg8
g10
sg11
S'img_05414.jpg'
p947
sa(dp948
g3
(lp949
sg8
g10
sg11
S'img_05400.jpg'
p950
sa(dp951
g3
(lp952
sg8
g10
sg11
S'img_05395.jpg'
p953
sa(dp954
g3
(lp955
sg8
g10
sg11
S'img_05380.jpg'
p956
sa(dp957
g3
(lp958
sg8
g10
sg11
S'img_05333.jpg'
p959
sa(dp960
g3
(lp961
sg8
g10
sg11
S'img_05323.jpg'
p962
sa(dp963
g3
(lp964
sg8
g10
sg11
S'img_05302.jpg'
p965
sa(dp966
g3
(lp967
sg8
g10
sg11
S'img_05280.jpg'
p968
sa(dp969
g3
(lp970
sg8
g10
sg11
S'img_05245.jpg'
p971
sa(dp972
g3
(lp973
sg8
g10
sg11
S'img_05183.jpg'
p974
sa(dp975
g3
(lp976
sg8
g10
sg11
S'img_05171.jpg'
p977
sa(dp978
g3
(lp979
sg8
g10
sg11
S'img_05122.jpg'
p980
sa(dp981
g3
(lp982
sg8
g10
sg11
S'img_05116.jpg'
p983
sa(dp984
g3
(lp985
sg8
g10
sg11
S'img_05108.jpg'
p986
sa(dp987
g3
(lp988
sg8
g10
sg11
S'img_05102.jpg'
p989
sa(dp990
g3
(lp991
sg8
g10
sg11
S'img_05097.jpg'
p992
sa(dp993
g3
(lp994
sg8
g10
sg11
S'img_05088.jpg'
p995
sa(dp996
g3
(lp997
sg8
g10
sg11
S'img_05066.jpg'
p998
sa(dp999
g3
(lp1000
sg8
g10
sg11
S'img_05060.jpg'
p1001
sa(dp1002
g3
(lp1003
sg8
g10
sg11
S'img_05036.jpg'
p1004
sa(dp1005
g3
(lp1006
sg8
g10
sg11
S'img_05024.jpg'
p1007
sa(dp1008
g3
(lp1009
sg8
g10
sg11
S'img_04977.jpg'
p1010
sa(dp1011
g3
(lp1012
sg8
g10
sg11
S'img_04947.jpg'
p1013
sa(dp1014
g3
(lp1015
sg8
g10
sg11
S'img_04942.jpg'
p1016
sa(dp1017
g3
(lp1018
sg8
g10
sg11
S'img_04933.jpg'
p1019
sa(dp1020
g3
(lp1021
sg8
g10
sg11
S'img_04918.jpg'
p1022
sa(dp1023
g3
(lp1024
sg8
g10
sg11
S'img_04912.jpg'
p1025
sa(dp1026
g3
(lp1027
sg8
g10
sg11
S'img_04868.jpg'
p1028
sa(dp1029
g3
(lp1030
sg8
g10
sg11
S'img_04859.jpg'
p1031
sa(dp1032
g3
(lp1033
sg8
g10
sg11
S'img_04817.jpg'
p1034
sa(dp1035
g3
(lp1036
sg8
g10
sg11
S'img_04801.jpg'
p1037
sa(dp1038
g3
(lp1039
sg8
g10
sg11
S'img_04768.jpg'
p1040
sa(dp1041
g3
(lp1042
sg8
g10
sg11
S'img_04759.jpg'
p1043
sa(dp1044
g3
(lp1045
sg8
g10
sg11
S'img_04756.jpg'
p1046
sa(dp1047
g3
(lp1048
sg8
g10
sg11
S'img_04738.jpg'
p1049
sa(dp1050
g3
(lp1051
sg8
g10
sg11
S'img_04730.jpg'
p1052
sa(dp1053
g3
(lp1054
sg8
g10
sg11
S'img_04698.jpg'
p1055
sa(dp1056
g3
(lp1057
sg8
g10
sg11
S'img_04646.jpg'
p1058
sa(dp1059
g3
(lp1060
sg8
g10
sg11
S'img_04627.jpg'
p1061
sa(dp1062
g3
(lp1063
sg8
g10
sg11
S'img_04626.jpg'
p1064
sa(dp1065
g3
(lp1066
sg8
g10
sg11
S'img_04591.jpg'
p1067
sa(dp1068
g3
(lp1069
sg8
g10
sg11
S'img_04573.jpg'
p1070
sa(dp1071
g3
(lp1072
sg8
g10
sg11
S'img_04558.jpg'
p1073
sa(dp1074
g3
(lp1075
sg8
g10
sg11
S'img_04533.jpg'
p1076
sa(dp1077
g3
(lp1078
sg8
g10
sg11
S'img_04488.jpg'
p1079
sa(dp1080
g3
(lp1081
sg8
g10
sg11
S'img_04473.jpg'
p1082
sa(dp1083
g3
(lp1084
sg8
g10
sg11
S'img_04444.jpg'
p1085
sa(dp1086
g3
(lp1087
sg8
g10
sg11
S'img_04392.jpg'
p1088
sa(dp1089
g3
(lp1090
sg8
g10
sg11
S'img_04381.jpg'
p1091
sa(dp1092
g3
(lp1093
sg8
g10
sg11
S'img_04373.jpg'
p1094
sa(dp1095
g3
(lp1096
sg8
g10
sg11
S'img_04367.jpg'
p1097
sa(dp1098
g3
(lp1099
sg8
g10
sg11
S'img_04364.jpg'
p1100
sa(dp1101
g3
(lp1102
sg8
g10
sg11
S'img_04331.jpg'
p1103
sa(dp1104
g3
(lp1105
sg8
g10
sg11
S'img_04302.jpg'
p1106
sa(dp1107
g3
(lp1108
sg8
g10
sg11
S'img_04292.jpg'
p1109
sa(dp1110
g3
(lp1111
sg8
g10
sg11
S'img_04280.jpg'
p1112
sa(dp1113
g3
(lp1114
sg8
g10
sg11
S'img_04273.jpg'
p1115
sa(dp1116
g3
(lp1117
sg8
g10
sg11
S'img_04267.jpg'
p1118
sa(dp1119
g3
(lp1120
sg8
g10
sg11
S'img_04241.jpg'
p1121
sa(dp1122
g3
(lp1123
sg8
g10
sg11
S'img_04236.jpg'
p1124
sa(dp1125
g3
(lp1126
sg8
g10
sg11
S'img_04217.jpg'
p1127
sa(dp1128
g3
(lp1129
sg8
g10
sg11
S'img_04120.jpg'
p1130
sa(dp1131
g3
(lp1132
sg8
g10
sg11
S'img_04113.jpg'
p1133
sa(dp1134
g3
(lp1135
sg8
g10
sg11
S'img_04097.jpg'
p1136
sa(dp1137
g3
(lp1138
sg8
g10
sg11
S'img_04083.jpg'
p1139
sa(dp1140
g3
(lp1141
sg8
g10
sg11
S'img_04082.jpg'
p1142
sa(dp1143
g3
(lp1144
sg8
g10
sg11
S'img_04049.jpg'
p1145
sa(dp1146
g3
(lp1147
sg8
g10
sg11
S'img_04041.jpg'
p1148
sa(dp1149
g3
(lp1150
sg8
g10
sg11
S'img_04021.jpg'
p1151
sa(dp1152
g3
(lp1153
sg8
g10
sg11
S'img_03999.jpg'
p1154
sa(dp1155
g3
(lp1156
sg8
g10
sg11
S'img_03950.jpg'
p1157
sa(dp1158
g3
(lp1159
sg8
g10
sg11
S'img_03948.jpg'
p1160
sa(dp1161
g3
(lp1162
sg8
g10
sg11
S'img_03947.jpg'
p1163
sa(dp1164
g3
(lp1165
sg8
g10
sg11
S'img_03938.jpg'
p1166
sa(dp1167
g3
(lp1168
sg8
g10
sg11
S'img_03921.jpg'
p1169
sa(dp1170
g3
(lp1171
sg8
g10
sg11
S'img_03911.jpg'
p1172
sa(dp1173
g3
(lp1174
sg8
g10
sg11
S'img_03856.jpg'
p1175
sa(dp1176
g3
(lp1177
sg8
g10
sg11
S'img_03819.jpg'
p1178
sa(dp1179
g3
(lp1180
sg8
g10
sg11
S'img_03787.jpg'
p1181
sa(dp1182
g3
(lp1183
sg8
g10
sg11
S'img_03782.jpg'
p1184
sa(dp1185
g3
(lp1186
sg8
g10
sg11
S'img_03756.jpg'
p1187
sa(dp1188
g3
(lp1189
sg8
g10
sg11
S'img_03721.jpg'
p1190
sa(dp1191
g3
(lp1192
sg8
g10
sg11
S'img_03710.jpg'
p1193
sa(dp1194
g3
(lp1195
sg8
g10
sg11
S'img_03675.jpg'
p1196
sa(dp1197
g3
(lp1198
sg8
g10
sg11
S'img_03668.jpg'
p1199
sa(dp1200
g3
(lp1201
sg8
g10
sg11
S'img_03657.jpg'
p1202
sa(dp1203
g3
(lp1204
sg8
g10
sg11
S'img_03622.jpg'
p1205
sa(dp1206
g3
(lp1207
sg8
g10
sg11
S'img_03607.jpg'
p1208
sa(dp1209
g3
(lp1210
sg8
g10
sg11
S'img_03604.jpg'
p1211
sa(dp1212
g3
(lp1213
sg8
g10
sg11
S'img_03585.jpg'
p1214
sa(dp1215
g3
(lp1216
sg8
g10
sg11
S'img_03567.jpg'
p1217
sa(dp1218
g3
(lp1219
sg8
g10
sg11
S'img_03560.jpg'
p1220
sa(dp1221
g3
(lp1222
sg8
g10
sg11
S'img_03541.jpg'
p1223
sa(dp1224
g3
(lp1225
sg8
g10
sg11
S'img_03540.jpg'
p1226
sa(dp1227
g3
(lp1228
sg8
g10
sg11
S'img_03514.jpg'
p1229
sa(dp1230
g3
(lp1231
sg8
g10
sg11
S'img_03505.jpg'
p1232
sa(dp1233
g3
(lp1234
sg8
g10
sg11
S'img_03485.jpg'
p1235
sa(dp1236
g3
(lp1237
sg8
g10
sg11
S'img_03477.jpg'
p1238
sa(dp1239
g3
(lp1240
sg8
g10
sg11
S'img_03460.jpg'
p1241
sa(dp1242
g3
(lp1243
sg8
g10
sg11
S'img_03396.jpg'
p1244
sa(dp1245
g3
(lp1246
sg8
g10
sg11
S'img_03388.jpg'
p1247
sa(dp1248
g3
(lp1249
sg8
g10
sg11
S'img_03372.jpg'
p1250
sa(dp1251
g3
(lp1252
sg8
g10
sg11
S'img_03325.jpg'
p1253
sa(dp1254
g3
(lp1255
sg8
g10
sg11
S'img_03313.jpg'
p1256
sa(dp1257
g3
(lp1258
sg8
g10
sg11
S'img_03278.jpg'
p1259
sa(dp1260
g3
(lp1261
sg8
g10
sg11
S'img_03276.jpg'
p1262
sa(dp1263
g3
(lp1264
sg8
g10
sg11
S'img_03266.jpg'
p1265
sa(dp1266
g3
(lp1267
sg8
g10
sg11
S'img_03242.jpg'
p1268
sa(dp1269
g3
(lp1270
sg8
g10
sg11
S'img_03217.jpg'
p1271
sa(dp1272
g3
(lp1273
sg8
g10
sg11
S'img_03211.jpg'
p1274
sa(dp1275
g3
(lp1276
sg8
g10
sg11
S'img_03196.jpg'
p1277
sa(dp1278
g3
(lp1279
sg8
g10
sg11
S'img_03189.jpg'
p1280
sa(dp1281
g3
(lp1282
sg8
g10
sg11
S'img_03160.jpg'
p1283
sa(dp1284
g3
(lp1285
sg8
g10
sg11
S'img_03157.jpg'
p1286
sa(dp1287
g3
(lp1288
sg8
g10
sg11
S'img_03136.jpg'
p1289
sa(dp1290
g3
(lp1291
sg8
g10
sg11
S'img_03127.jpg'
p1292
sa(dp1293
g3
(lp1294
sg8
g10
sg11
S'img_03121.jpg'
p1295
sa(dp1296
g3
(lp1297
sg8
g10
sg11
S'img_03101.jpg'
p1298
sa(dp1299
g3
(lp1300
sg8
g10
sg11
S'img_03100.jpg'
p1301
sa(dp1302
g3
(lp1303
sg8
g10
sg11
S'img_03094.jpg'
p1304
sa(dp1305
g3
(lp1306
sg8
g10
sg11
S'img_03086.jpg'
p1307
sa(dp1308
g3
(lp1309
sg8
g10
sg11
S'img_03081.jpg'
p1310
sa(dp1311
g3
(lp1312
sg8
g10
sg11
S'img_03063.jpg'
p1313
sa(dp1314
g3
(lp1315
sg8
g10
sg11
S'img_03062.jpg'
p1316
sa(dp1317
g3
(lp1318
sg8
g10
sg11
S'img_03046.jpg'
p1319
sa(dp1320
g3
(lp1321
sg8
g10
sg11
S'img_03035.jpg'
p1322
sa(dp1323
g3
(lp1324
sg8
g10
sg11
S'img_03015.jpg'
p1325
sa(dp1326
g3
(lp1327
sg8
g10
sg11
S'img_03004.jpg'
p1328
sa(dp1329
g3
(lp1330
sg8
g10
sg11
S'img_02986.jpg'
p1331
sa(dp1332
g3
(lp1333
sg8
g10
sg11
S'img_02962.jpg'
p1334
sa(dp1335
g3
(lp1336
sg8
g10
sg11
S'img_02958.jpg'
p1337
sa(dp1338
g3
(lp1339
sg8
g10
sg11
S'img_02934.jpg'
p1340
sa(dp1341
g3
(lp1342
sg8
g10
sg11
S'img_02919.jpg'
p1343
sa(dp1344
g3
(lp1345
sg8
g10
sg11
S'img_02918.jpg'
p1346
sa(dp1347
g3
(lp1348
sg8
g10
sg11
S'img_02917.jpg'
p1349
sa(dp1350
g3
(lp1351
sg8
g10
sg11
S'img_02897.jpg'
p1352
sa(dp1353
g3
(lp1354
sg8
g10
sg11
S'img_02863.jpg'
p1355
sa(dp1356
g3
(lp1357
sg8
g10
sg11
S'img_02853.jpg'
p1358
sa(dp1359
g3
(lp1360
sg8
g10
sg11
S'img_02846.jpg'
p1361
sa(dp1362
g3
(lp1363
sg8
g10
sg11
S'img_02806.jpg'
p1364
sa(dp1365
g3
(lp1366
sg8
g10
sg11
S'img_02756.jpg'
p1367
sa(dp1368
g3
(lp1369
sg8
g10
sg11
S'img_02748.jpg'
p1370
sa(dp1371
g3
(lp1372
sg8
g10
sg11
S'img_02730.jpg'
p1373
sa(dp1374
g3
(lp1375
sg8
g10
sg11
S'img_02727.jpg'
p1376
sa(dp1377
g3
(lp1378
sg8
g10
sg11
S'img_02713.jpg'
p1379
sa(dp1380
g3
(lp1381
sg8
g10
sg11
S'img_02712.jpg'
p1382
sa(dp1383
g3
(lp1384
sg8
g10
sg11
S'img_02707.jpg'
p1385
sa(dp1386
g3
(lp1387
sg8
g10
sg11
S'img_02673.jpg'
p1388
sa(dp1389
g3
(lp1390
sg8
g10
sg11
S'img_02652.jpg'
p1391
sa(dp1392
g3
(lp1393
sg8
g10
sg11
S'img_02642.jpg'
p1394
sa(dp1395
g3
(lp1396
sg8
g10
sg11
S'img_02626.jpg'
p1397
sa(dp1398
g3
(lp1399
sg8
g10
sg11
S'img_02597.jpg'
p1400
sa(dp1401
g3
(lp1402
sg8
g10
sg11
S'img_02592.jpg'
p1403
sa(dp1404
g3
(lp1405
sg8
g10
sg11
S'img_02585.jpg'
p1406
sa(dp1407
g3
(lp1408
sg8
g10
sg11
S'img_02579.jpg'
p1409
sa(dp1410
g3
(lp1411
sg8
g10
sg11
S'img_02559.jpg'
p1412
sa(dp1413
g3
(lp1414
sg8
g10
sg11
S'img_02525.jpg'
p1415
sa(dp1416
g3
(lp1417
sg8
g10
sg11
S'img_02515.jpg'
p1418
sa(dp1419
g3
(lp1420
sg8
g10
sg11
S'img_02500.jpg'
p1421
sa(dp1422
g3
(lp1423
sg8
g10
sg11
S'img_02485.jpg'
p1424
sa(dp1425
g3
(lp1426
sg8
g10
sg11
S'img_02463.jpg'
p1427
sa(dp1428
g3
(lp1429
sg8
g10
sg11
S'img_02450.jpg'
p1430
sa(dp1431
g3
(lp1432
sg8
g10
sg11
S'img_02387.jpg'
p1433
sa(dp1434
g3
(lp1435
sg8
g10
sg11
S'img_02371.jpg'
p1436
sa(dp1437
g3
(lp1438
sg8
g10
sg11
S'img_02368.jpg'
p1439
sa(dp1440
g3
(lp1441
sg8
g10
sg11
S'img_02365.jpg'
p1442
sa(dp1443
g3
(lp1444
sg8
g10
sg11
S'img_02364.jpg'
p1445
sa(dp1446
g3
(lp1447
sg8
g10
sg11
S'img_02308.jpg'
p1448
sa(dp1449
g3
(lp1450
sg8
g10
sg11
S'img_02295.jpg'
p1451
sa(dp1452
g3
(lp1453
sg8
g10
sg11
S'img_02278.jpg'
p1454
sa(dp1455
g3
(lp1456
sg8
g10
sg11
S'img_02247.jpg'
p1457
sa(dp1458
g3
(lp1459
sg8
g10
sg11
S'img_02220.jpg'
p1460
sa(dp1461
g3
(lp1462
sg8
g10
sg11
S'img_02219.jpg'
p1463
sa(dp1464
g3
(lp1465
sg8
g10
sg11
S'img_02199.jpg'
p1466
sa(dp1467
g3
(lp1468
sg8
g10
sg11
S'img_02173.jpg'
p1469
sa(dp1470
g3
(lp1471
sg8
g10
sg11
S'img_02165.jpg'
p1472
sa(dp1473
g3
(lp1474
sg8
g10
sg11
S'img_02150.jpg'
p1475
sa(dp1476
g3
(lp1477
sg8
g10
sg11
S'img_02149.jpg'
p1478
sa(dp1479
g3
(lp1480
sg8
g10
sg11
S'img_02111.jpg'
p1481
sa(dp1482
g3
(lp1483
sg8
g10
sg11
S'img_02075.jpg'
p1484
sa(dp1485
g3
(lp1486
sg8
g10
sg11
S'img_02067.jpg'
p1487
sa(dp1488
g3
(lp1489
sg8
g10
sg11
S'img_02014.jpg'
p1490
sa(dp1491
g3
(lp1492
sg8
g10
sg11
S'img_01973.jpg'
p1493
sa(dp1494
g3
(lp1495
sg8
g10
sg11
S'img_01898.jpg'
p1496
sa(dp1497
g3
(lp1498
sg8
g10
sg11
S'img_01876.jpg'
p1499
sa(dp1500
g3
(lp1501
sg8
g10
sg11
S'img_01861.jpg'
p1502
sa(dp1503
g3
(lp1504
sg8
g10
sg11
S'img_01842.jpg'
p1505
sa(dp1506
g3
(lp1507
sg8
g10
sg11
S'img_01829.jpg'
p1508
sa(dp1509
g3
(lp1510
sg8
g10
sg11
S'img_01784.jpg'
p1511
sa(dp1512
g3
(lp1513
sg8
g10
sg11
S'img_01769.jpg'
p1514
sa(dp1515
g3
(lp1516
sg8
g10
sg11
S'img_01767.jpg'
p1517
sa(dp1518
g3
(lp1519
sg8
g10
sg11
S'img_01749.jpg'
p1520
sa(dp1521
g3
(lp1522
sg8
g10
sg11
S'img_01742.jpg'
p1523
sa(dp1524
g3
(lp1525
sg8
g10
sg11
S'img_01727.jpg'
p1526
sa(dp1527
g3
(lp1528
sg8
g10
sg11
S'img_01700.jpg'
p1529
sa(dp1530
g3
(lp1531
sg8
g10
sg11
S'img_01634.jpg'
p1532
sa(dp1533
g3
(lp1534
sg8
g10
sg11
S'img_01625.jpg'
p1535
sa(dp1536
g3
(lp1537
sg8
g10
sg11
S'img_01623.jpg'
p1538
sa(dp1539
g3
(lp1540
sg8
g10
sg11
S'img_01610.jpg'
p1541
sa(dp1542
g3
(lp1543
sg8
g10
sg11
S'img_01606.jpg'
p1544
sa(dp1545
g3
(lp1546
sg8
g10
sg11
S'img_01539.jpg'
p1547
sa(dp1548
g3
(lp1549
sg8
g10
sg11
S'img_01532.jpg'
p1550
sa(dp1551
g3
(lp1552
sg8
g10
sg11
S'img_01521.jpg'
p1553
sa(dp1554
g3
(lp1555
sg8
g10
sg11
S'img_01498.jpg'
p1556
sa(dp1557
g3
(lp1558
sg8
g10
sg11
S'img_01492.jpg'
p1559
sa(dp1560
g3
(lp1561
sg8
g10
sg11
S'img_01472.jpg'
p1562
sa(dp1563
g3
(lp1564
sg8
g10
sg11
S'img_01469.jpg'
p1565
sa(dp1566
g3
(lp1567
sg8
g10
sg11
S'img_01456.jpg'
p1568
sa(dp1569
g3
(lp1570
sg8
g10
sg11
S'img_01410.jpg'
p1571
sa(dp1572
g3
(lp1573
sg8
g10
sg11
S'img_01380.jpg'
p1574
sa(dp1575
g3
(lp1576
sg8
g10
sg11
S'img_01375.jpg'
p1577
sa(dp1578
g3
(lp1579
sg8
g10
sg11
S'img_01370.jpg'
p1580
sa(dp1581
g3
(lp1582
sg8
g10
sg11
S'img_01358.jpg'
p1583
sa(dp1584
g3
(lp1585
sg8
g10
sg11
S'img_01340.jpg'
p1586
sa(dp1587
g3
(lp1588
sg8
g10
sg11
S'img_01335.jpg'
p1589
sa(dp1590
g3
(lp1591
sg8
g10
sg11
S'img_01329.jpg'
p1592
sa(dp1593
g3
(lp1594
sg8
g10
sg11
S'img_01323.jpg'
p1595
sa(dp1596
g3
(lp1597
sg8
g10
sg11
S'img_01308.jpg'
p1598
sa(dp1599
g3
(lp1600
sg8
g10
sg11
S'img_01292.jpg'
p1601
sa(dp1602
g3
(lp1603
sg8
g10
sg11
S'img_01254.jpg'
p1604
sa(dp1605
g3
(lp1606
sg8
g10
sg11
S'img_01241.jpg'
p1607
sa(dp1608
g3
(lp1609
sg8
g10
sg11
S'img_01217.jpg'
p1610
sa(dp1611
g3
(lp1612
sg8
g10
sg11
S'img_01199.jpg'
p1613
sa(dp1614
g3
(lp1615
sg8
g10
sg11
S'img_01190.jpg'
p1616
sa(dp1617
g3
(lp1618
sg8
g10
sg11
S'img_01189.jpg'
p1619
sa(dp1620
g3
(lp1621
sg8
g10
sg11
S'img_01007.jpg'
p1622
sa(dp1623
g3
(lp1624
sg8
g10
sg11
S'img_00997.jpg'
p1625
sa(dp1626
g3
(lp1627
sg8
g10
sg11
S'img_00969.jpg'
p1628
sa(dp1629
g3
(lp1630
sg8
g10
sg11
S'img_00945.jpg'
p1631
sa(dp1632
g3
(lp1633
sg8
g10
sg11
S'img_00900.jpg'
p1634
sa(dp1635
g3
(lp1636
sg8
g10
sg11
S'img_00896.jpg'
p1637
sa(dp1638
g3
(lp1639
sg8
g10
sg11
S'img_00891.jpg'
p1640
sa(dp1641
g3
(lp1642
sg8
g10
sg11
S'img_00890.jpg'
p1643
sa(dp1644
g3
(lp1645
sg8
g10
sg11
S'img_00827.jpg'
p1646
sa(dp1647
g3
(lp1648
sg8
g10
sg11
S'img_00807.jpg'
p1649
sa(dp1650
g3
(lp1651
sg8
g10
sg11
S'img_00801.jpg'
p1652
sa(dp1653
g3
(lp1654
sg8
g10
sg11
S'img_00796.jpg'
p1655
sa(dp1656
g3
(lp1657
sg8
g10
sg11
S'img_00769.jpg'
p1658
sa(dp1659
g3
(lp1660
sg8
g10
sg11
S'img_00752.jpg'
p1661
sa(dp1662
g3
(lp1663
sg8
g10
sg11
S'img_00743.jpg'
p1664
sa(dp1665
g3
(lp1666
sg8
g10
sg11
S'img_00739.jpg'
p1667
sa(dp1668
g3
(lp1669
sg8
g10
sg11
S'img_00696.jpg'
p1670
sa(dp1671
g3
(lp1672
sg8
g10
sg11
S'img_00694.jpg'
p1673
sa(dp1674
g3
(lp1675
sg8
g10
sg11
S'img_00677.jpg'
p1676
sa(dp1677
g3
(lp1678
sg8
g10
sg11
S'img_00641.jpg'
p1679
sa(dp1680
g3
(lp1681
sg8
g10
sg11
S'img_00573.jpg'
p1682
sa(dp1683
g3
(lp1684
sg8
g10
sg11
S'img_00572.jpg'
p1685
sa(dp1686
g3
(lp1687
sg8
g10
sg11
S'img_00566.jpg'
p1688
sa(dp1689
g3
(lp1690
sg8
g10
sg11
S'img_00539.jpg'
p1691
sa(dp1692
g3
(lp1693
sg8
g10
sg11
S'img_00536.jpg'
p1694
sa(dp1695
g3
(lp1696
sg8
g10
sg11
S'img_00522.jpg'
p1697
sa(dp1698
g3
(lp1699
sg8
g10
sg11
S'img_00501.jpg'
p1700
sa(dp1701
g3
(lp1702
sg8
g10
sg11
S'img_00470.jpg'
p1703
sa(dp1704
g3
(lp1705
sg8
g10
sg11
S'img_00439.jpg'
p1706
sa(dp1707
g3
(lp1708
sg8
g10
sg11
S'img_00437.jpg'
p1709
sa(dp1710
g3
(lp1711
sg8
g10
sg11
S'img_00378.jpg'
p1712
sa(dp1713
g3
(lp1714
sg8
g10
sg11
S'img_00370.jpg'
p1715
sa(dp1716
g3
(lp1717
sg8
g10
sg11
S'img_00313.jpg'
p1718
sa(dp1719
g3
(lp1720
sg8
g10
sg11
S'img_00312.jpg'
p1721
sa(dp1722
g3
(lp1723
sg8
g10
sg11
S'img_00284.jpg'
p1724
sa(dp1725
g3
(lp1726
sg8
g10
sg11
S'img_00279.jpg'
p1727
sa(dp1728
g3
(lp1729
sg8
g10
sg11
S'img_00276.jpg'
p1730
sa(dp1731
g3
(lp1732
sg8
g10
sg11
S'img_00250.jpg'
p1733
sa(dp1734
g3
(lp1735
sg8
g10
sg11
S'img_00221.jpg'
p1736
sa(dp1737
g3
(lp1738
sg8
g10
sg11
S'img_00217.jpg'
p1739
sa(dp1740
g3
(lp1741
sg8
g10
sg11
S'img_00214.jpg'
p1742
sa(dp1743
g3
(lp1744
sg8
g10
sg11
S'img_00194.jpg'
p1745
sa(dp1746
g3
(lp1747
sg8
g10
sg11
S'img_00184.jpg'
p1748
sa(dp1749
g3
(lp1750
sg8
g10
sg11
S'img_00139.jpg'
p1751
sa(dp1752
g3
(lp1753
sg8
g10
sg11
S'img_00137.jpg'
p1754
sa(dp1755
g3
(lp1756
sg8
g10
sg11
S'img_00118.jpg'
p1757
sa(dp1758
g3
(lp1759
sg8
g10
sg11
S'img_00116.jpg'
p1760
sa(dp1761
g3
(lp1762
sg8
g10
sg11
S'img_00114.jpg'
p1763
sa(dp1764
g3
(lp1765
sg8
g10
sg11
S'img_00093.jpg'
p1766
sa(dp1767
g3
(lp1768
sg8
g10
sg11
S'img_00069.jpg'
p1769
sa(dp1770
g3
(lp1771
sg8
g10
sg11
S'img_00061.jpg'
p1772
sa(dp1773
g3
(lp1774
sg8
g10
sg11
S'img_00021.jpg'
p1775
sa(dp1776
g3
(lp1777
sg8
g10
sg11
S'img_00004.jpg'
p1778
sa(dp1779
g3
(lp1780
sg8
g10
sg11
S'img_07854.jpg'
p1781
sa(dp1782
g3
(lp1783
sg8
g10
sg11
S'img_07853.jpg'
p1784
sa(dp1785
g3
(lp1786
sg8
g10
sg11
S'img_07852.jpg'
p1787
sa(dp1788
g3
(lp1789
sg8
g10
sg11
S'img_07849.jpg'
p1790
sa(dp1791
g3
(lp1792
sg8
g10
sg11
S'img_07775.jpg'
p1793
sa(dp1794
g3
(lp1795
sg8
g10
sg11
S'img_07765.jpg'
p1796
sa(dp1797
g3
(lp1798
sg8
g10
sg11
S'img_07750.jpg'
p1799
sa(dp1800
g3
(lp1801
sg8
g10
sg11
S'img_07712.jpg'
p1802
sa(dp1803
g3
(lp1804
sg8
g10
sg11
S'img_07665.jpg'
p1805
sa(dp1806
g3
(lp1807
sg8
g10
sg11
S'img_07655.jpg'
p1808
sa(dp1809
g3
(lp1810
sg8
g10
sg11
S'img_07653.jpg'
p1811
sa(dp1812
g3
(lp1813
sg8
g10
sg11
S'img_07577.jpg'
p1814
sa(dp1815
g3
(lp1816
sg8
g10
sg11
S'img_07569.jpg'
p1817
sa(dp1818
g3
(lp1819
sg8
g10
sg11
S'img_07530.jpg'
p1820
sa(dp1821
g3
(lp1822
sg8
g10
sg11
S'img_07517.jpg'
p1823
sa(dp1824
g3
(lp1825
sg8
g10
sg11
S'img_07499.jpg'
p1826
sa(dp1827
g3
(lp1828
sg8
g10
sg11
S'img_07472.jpg'
p1829
sa(dp1830
g3
(lp1831
sg8
g10
sg11
S'img_07427.jpg'
p1832
sa(dp1833
g3
(lp1834
sg8
g10
sg11
S'img_07403.jpg'
p1835
sa(dp1836
g3
(lp1837
sg8
g10
sg11
S'img_07315.jpg'
p1838
sa(dp1839
g3
(lp1840
sg8
g10
sg11
S'img_07286.jpg'
p1841
sa(dp1842
g3
(lp1843
sg8
g10
sg11
S'img_07276.jpg'
p1844
sa(dp1845
g3
(lp1846
sg8
g10
sg11
S'img_07226.jpg'
p1847
sa(dp1848
g3
(lp1849
sg8
g10
sg11
S'img_07095.jpg'
p1850
sa(dp1851
g3
(lp1852
sg8
g10
sg11
S'img_07069.jpg'
p1853
sa(dp1854
g3
(lp1855
sg8
g10
sg11
S'img_06925.jpg'
p1856
sa(dp1857
g3
(lp1858
sg8
g10
sg11
S'img_06898.jpg'
p1859
sa(dp1860
g3
(lp1861
sg8
g10
sg11
S'img_06875.jpg'
p1862
sa(dp1863
g3
(lp1864
sg8
g10
sg11
S'img_06846.jpg'
p1865
sa(dp1866
g3
(lp1867
sg8
g10
sg11
S'img_06687.jpg'
p1868
sa(dp1869
g3
(lp1870
sg8
g10
sg11
S'img_06569.jpg'
p1871
sa(dp1872
g3
(lp1873
sg8
g10
sg11
S'img_06509.jpg'
p1874
sa(dp1875
g3
(lp1876
sg8
g10
sg11
S'img_06486.jpg'
p1877
sa(dp1878
g3
(lp1879
sg8
g10
sg11
S'img_06464.jpg'
p1880
sa(dp1881
g3
(lp1882
sg8
g10
sg11
S'img_06406.jpg'
p1883
sa(dp1884
g3
(lp1885
sg8
g10
sg11
S'img_06326.jpg'
p1886
sa(dp1887
g3
(lp1888
sg8
g10
sg11
S'img_06316.jpg'
p1889
sa(dp1890
g3
(lp1891
sg8
g10
sg11
S'img_06262.jpg'
p1892
sa(dp1893
g3
(lp1894
sg8
g10
sg11
S'img_06228.jpg'
p1895
sa(dp1896
g3
(lp1897
sg8
g10
sg11
S'img_06146.jpg'
p1898
sa(dp1899
g3
(lp1900
sg8
g10
sg11
S'img_06048.jpg'
p1901
sa(dp1902
g3
(lp1903
sg8
g10
sg11
S'img_05926.jpg'
p1904
sa(dp1905
g3
(lp1906
sg8
g10
sg11
S'img_05903.jpg'
p1907
sa(dp1908
g3
(lp1909
sg8
g10
sg11
S'img_05783.jpg'
p1910
sa(dp1911
g3
(lp1912
sg8
g10
sg11
S'img_05769.jpg'
p1913
sa(dp1914
g3
(lp1915
sg8
g10
sg11
S'img_05765.jpg'
p1916
sa(dp1917
g3
(lp1918
sg8
g10
sg11
S'img_05744.jpg'
p1919
sa(dp1920
g3
(lp1921
sg8
g10
sg11
S'img_05708.jpg'
p1922
sa(dp1923
g3
(lp1924
sg8
g10
sg11
S'img_05706.jpg'
p1925
sa(dp1926
g3
(lp1927
sg8
g10
sg11
S'img_05680.jpg'
p1928
sa(dp1929
g3
(lp1930
sg8
g10
sg11
S'img_05669.jpg'
p1931
sa(dp1932
g3
(lp1933
sg8
g10
sg11
S'img_05667.jpg'
p1934
sa(dp1935
g3
(lp1936
sg8
g10
sg11
S'img_05655.jpg'
p1937
sa(dp1938
g3
(lp1939
sg8
g10
sg11
S'img_05644.jpg'
p1940
sa(dp1941
g3
(lp1942
sg8
g10
sg11
S'img_05495.jpg'
p1943
sa(dp1944
g3
(lp1945
sg8
g10
sg11
S'img_05477.jpg'
p1946
sa(dp1947
g3
(lp1948
sg8
g10
sg11
S'img_05347.jpg'
p1949
sa(dp1950
g3
(lp1951
sg8
g10
sg11
S'img_05329.jpg'
p1952
sa(dp1953
g3
(lp1954
sg8
g10
sg11
S'img_05172.jpg'
p1955
sa(dp1956
g3
(lp1957
sg8
g10
sg11
S'img_05143.jpg'
p1958
sa(dp1959
g3
(lp1960
sg8
g10
sg11
S'img_05128.jpg'
p1961
sa(dp1962
g3
(lp1963
sg8
g10
sg11
S'img_04936.jpg'
p1964
sa(dp1965
g3
(lp1966
sg8
g10
sg11
S'img_04911.jpg'
p1967
sa(dp1968
g3
(lp1969
sg8
g10
sg11
S'img_04825.jpg'
p1970
sa(dp1971
g3
(lp1972
sg8
g10
sg11
S'img_04802.jpg'
p1973
sa(dp1974
g3
(lp1975
sg8
g10
sg11
S'img_04688.jpg'
p1976
sa(dp1977
g3
(lp1978
sg8
g10
sg11
S'img_04684.jpg'
p1979
sa(dp1980
g3
(lp1981
sg8
g10
sg11
S'img_04668.jpg'
p1982
sa(dp1983
g3
(lp1984
sg8
g10
sg11
S'img_04628.jpg'
p1985
sa(dp1986
g3
(lp1987
sg8
g10
sg11
S'img_04551.jpg'
p1988
sa(dp1989
g3
(lp1990
sg8
g10
sg11
S'img_04472.jpg'
p1991
sa(dp1992
g3
(lp1993
sg8
g10
sg11
S'img_04469.jpg'
p1994
sa(dp1995
g3
(lp1996
sg8
g10
sg11
S'img_04467.jpg'
p1997
sa(dp1998
g3
(lp1999
sg8
g10
sg11
S'img_04429.jpg'
p2000
sa(dp2001
g3
(lp2002
sg8
g10
sg11
S'img_04413.jpg'
p2003
sa(dp2004
g3
(lp2005
sg8
g10
sg11
S'img_04360.jpg'
p2006
sa(dp2007
g3
(lp2008
sg8
g10
sg11
S'img_04317.jpg'
p2009
sa(dp2010
g3
(lp2011
sg8
g10
sg11
S'img_04281.jpg'
p2012
sa(dp2013
g3
(lp2014
sg8
g10
sg11
S'img_04249.jpg'
p2015
sa(dp2016
g3
(lp2017
sg8
g10
sg11
S'img_04230.jpg'
p2018
sa(dp2019
g3
(lp2020
sg8
g10
sg11
S'img_04159.jpg'
p2021
sa(dp2022
g3
(lp2023
sg8
g10
sg11
S'img_04148.jpg'
p2024
sa(dp2025
g3
(lp2026
sg8
g10
sg11
S'img_04087.jpg'
p2027
sa(dp2028
g3
(lp2029
sg8
g10
sg11
S'img_03963.jpg'
p2030
sa(dp2031
g3
(lp2032
sg8
g10
sg11
S'img_03939.jpg'
p2033
sa(dp2034
g3
(lp2035
sg8
g10
sg11
S'img_03755.jpg'
p2036
sa(dp2037
g3
(lp2038
sg8
g10
sg11
S'img_03753.jpg'
p2039
sa(dp2040
g3
(lp2041
sg8
g10
sg11
S'img_03654.jpg'
p2042
sa(dp2043
g3
(lp2044
sg8
g10
sg11
S'img_03651.jpg'
p2045
sa(dp2046
g3
(lp2047
sg8
g10
sg11
S'img_03590.jpg'
p2048
sa(dp2049
g3
(lp2050
sg8
g10
sg11
S'img_03568.jpg'
p2051
sa(dp2052
g3
(lp2053
sg8
g10
sg11
S'img_03558.jpg'
p2054
sa(dp2055
g3
(lp2056
sg8
g10
sg11
S'img_03480.jpg'
p2057
sa(dp2058
g3
(lp2059
sg8
g10
sg11
S'img_03400.jpg'
p2060
sa(dp2061
g3
(lp2062
sg8
g10
sg11
S'img_03367.jpg'
p2063
sa(dp2064
g3
(lp2065
sg8
g10
sg11
S'img_03327.jpg'
p2066
sa(dp2067
g3
(lp2068
sg8
g10
sg11
S'img_03253.jpg'
p2069
sa(dp2070
g3
(lp2071
sg8
g10
sg11
S'img_03244.jpg'
p2072
sa(dp2073
g3
(lp2074
sg8
g10
sg11
S'img_03183.jpg'
p2075
sa(dp2076
g3
(lp2077
sg8
g10
sg11
S'img_03096.jpg'
p2078
sa(dp2079
g3
(lp2080
sg8
g10
sg11
S'img_03065.jpg'
p2081
sa(dp2082
g3
(lp2083
sg8
g10
sg11
S'img_03007.jpg'
p2084
sa(dp2085
g3
(lp2086
sg8
g10
sg11
S'img_02905.jpg'
p2087
sa(dp2088
g3
(lp2089
sg8
g10
sg11
S'img_02858.jpg'
p2090
sa(dp2091
g3
(lp2092
sg8
g10
sg11
S'img_02787.jpg'
p2093
sa(dp2094
g3
(lp2095
sg8
g10
sg11
S'img_02721.jpg'
p2096
sa(dp2097
g3
(lp2098
sg8
g10
sg11
S'img_02690.jpg'
p2099
sa(dp2100
g3
(lp2101
sg8
g10
sg11
S'img_02633.jpg'
p2102
sa(dp2103
g3
(lp2104
sg8
g10
sg11
S'img_02562.jpg'
p2105
sa(dp2106
g3
(lp2107
sg8
g10
sg11
S'img_02457.jpg'
p2108
sa(dp2109
g3
(lp2110
sg8
g10
sg11
S'img_02438.jpg'
p2111
sa(dp2112
g3
(lp2113
sg8
g10
sg11
S'img_02351.jpg'
p2114
sa(dp2115
g3
(lp2116
sg8
g10
sg11
S'img_02274.jpg'
p2117
sa(dp2118
g3
(lp2119
sg8
g10
sg11
S'img_02221.jpg'
p2120
sa(dp2121
g3
(lp2122
sg8
g10
sg11
S'img_02179.jpg'
p2123
sa(dp2124
g3
(lp2125
sg8
g10
sg11
S'img_02104.jpg'
p2126
sa(dp2127
g3
(lp2128
sg8
g10
sg11
S'img_02053.jpg'
p2129
sa(dp2130
g3
(lp2131
sg8
g10
sg11
S'img_01953.jpg'
p2132
sa(dp2133
g3
(lp2134
sg8
g10
sg11
S'img_01886.jpg'
p2135
sa(dp2136
g3
(lp2137
sg8
g10
sg11
S'img_01779.jpg'
p2138
sa(dp2139
g3
(lp2140
sg8
g10
sg11
S'img_01747.jpg'
p2141
sa(dp2142
g3
(lp2143
sg8
g10
sg11
S'img_01709.jpg'
p2144
sa(dp2145
g3
(lp2146
sg8
g10
sg11
S'img_01704.jpg'
p2147
sa(dp2148
g3
(lp2149
sg8
g10
sg11
S'img_01675.jpg'
p2150
sa(dp2151
g3
(lp2152
sg8
g10
sg11
S'img_01662.jpg'
p2153
sa(dp2154
g3
(lp2155
sg8
g10
sg11
S'img_01573.jpg'
p2156
sa(dp2157
g3
(lp2158
sg8
g10
sg11
S'img_01518.jpg'
p2159
sa(dp2160
g3
(lp2161
sg8
g10
sg11
S'img_01516.jpg'
p2162
sa(dp2163
g3
(lp2164
sg8
g10
sg11
S'img_01415.jpg'
p2165
sa(dp2166
g3
(lp2167
sg8
g10
sg11
S'img_01403.jpg'
p2168
sa(dp2169
g3
(lp2170
sg8
g10
sg11
S'img_01385.jpg'
p2171
sa(dp2172
g3
(lp2173
sg8
g10
sg11
S'img_01368.jpg'
p2174
sa(dp2175
g3
(lp2176
sg8
g10
sg11
S'img_01233.jpg'
p2177
sa(dp2178
g3
(lp2179
sg8
g10
sg11
S'img_01201.jpg'
p2180
sa(dp2181
g3
(lp2182
sg8
g10
sg11
S'img_01143.jpg'
p2183
sa(dp2184
g3
(lp2185
sg8
g10
sg11
S'img_01113.jpg'
p2186
sa(dp2187
g3
(lp2188
sg8
g10
sg11
S'img_01008.jpg'
p2189
sa(dp2190
g3
(lp2191
sg8
g10
sg11
S'img_00958.jpg'
p2192
sa(dp2193
g3
(lp2194
sg8
g10
sg11
S'img_00955.jpg'
p2195
sa(dp2196
g3
(lp2197
sg8
g10
sg11
S'img_00925.jpg'
p2198
sa(dp2199
g3
(lp2200
sg8
g10
sg11
S'img_00872.jpg'
p2201
sa(dp2202
g3
(lp2203
sg8
g10
sg11
S'img_00871.jpg'
p2204
sa(dp2205
g3
(lp2206
sg8
g10
sg11
S'img_00815.jpg'
p2207
sa(dp2208
g3
(lp2209
sg8
g10
sg11
S'img_00806.jpg'
p2210
sa(dp2211
g3
(lp2212
sg8
g10
sg11
S'img_00738.jpg'
p2213
sa(dp2214
g3
(lp2215
sg8
g10
sg11
S'img_00704.jpg'
p2216
sa(dp2217
g3
(lp2218
sg8
g10
sg11
S'img_00540.jpg'
p2219
sa(dp2220
g3
(lp2221
sg8
g10
sg11
S'img_00535.jpg'
p2222
sa(dp2223
g3
(lp2224
sg8
g10
sg11
S'img_00477.jpg'
p2225
sa(dp2226
g3
(lp2227
sg8
g10
sg11
S'img_00440.jpg'
p2228
sa(dp2229
g3
(lp2230
sg8
g10
sg11
S'img_00436.jpg'
p2231
sa(dp2232
g3
(lp2233
sg8
g10
sg11
S'img_00420.jpg'
p2234
sa(dp2235
g3
(lp2236
sg8
g10
sg11
S'img_00372.jpg'
p2237
sa(dp2238
g3
(lp2239
sg8
g10
sg11
S'img_00333.jpg'
p2240
sa(dp2241
g3
(lp2242
sg8
g10
sg11
S'img_00287.jpg'
p2243
sa(dp2244
g3
(lp2245
sg8
g10
sg11
S'img_00286.jpg'
p2246
sa(dp2247
g3
(lp2248
sg8
g10
sg11
S'img_00222.jpg'
p2249
sa(dp2250
g3
(lp2251
sg8
g10
sg11
S'img_00092.jpg'
p2252
sa(dp2253
g3
(lp2254
sg8
g10
sg11
S'img_00023.jpg'
p2255
sa(dp2256
g3
(lp2257
sg8
g10
sg11
S'img_07649.jpg'
p2258
sa(dp2259
g3
(lp2260
sg8
g10
sg11
S'img_07613.jpg'
p2261
sa(dp2262
g3
(lp2263
sg8
g10
sg11
S'img_07541.jpg'
p2264
sa(dp2265
g3
(lp2266
sg8
g10
sg11
S'img_07466.jpg'
p2267
sa(dp2268
g3
(lp2269
sg8
g10
sg11
S'img_07368.jpg'
p2270
sa(dp2271
g3
(lp2272
sg8
g10
sg11
S'img_07074.jpg'
p2273
sa(dp2274
g3
(lp2275
sg8
g10
sg11
S'img_07072.jpg'
p2276
sa(dp2277
g3
(lp2278
sg8
g10
sg11
S'img_06988.jpg'
p2279
sa(dp2280
g3
(lp2281
sg8
g10
sg11
S'img_06980.jpg'
p2282
sa(dp2283
g3
(lp2284
sg8
g10
sg11
S'img_06897.jpg'
p2285
sa(dp2286
g3
(lp2287
sg8
g10
sg11
S'img_06854.jpg'
p2288
sa(dp2289
g3
(lp2290
sg8
g10
sg11
S'img_06625.jpg'
p2291
sa(dp2292
g3
(lp2293
sg8
g10
sg11
S'img_06600.jpg'
p2294
sa(dp2295
g3
(lp2296
sg8
g10
sg11
S'img_06593.jpg'
p2297
sa(dp2298
g3
(lp2299
sg8
g10
sg11
S'img_06407.jpg'
p2300
sa(dp2301
g3
(lp2302
sg8
g10
sg11
S'img_06364.jpg'
p2303
sa(dp2304
g3
(lp2305
sg8
g10
sg11
S'img_06336.jpg'
p2306
sa(dp2307
g3
(lp2308
sg8
g10
sg11
S'img_05816.jpg'
p2309
sa(dp2310
g3
(lp2311
sg8
g10
sg11
S'img_05786.jpg'
p2312
sa(dp2313
g3
(lp2314
sg8
g10
sg11
S'img_05662.jpg'
p2315
sa(dp2316
g3
(lp2317
sg8
g10
sg11
S'img_05321.jpg'
p2318
sa(dp2319
g3
(lp2320
sg8
g10
sg11
S'img_05282.jpg'
p2321
sa(dp2322
g3
(lp2323
sg8
g10
sg11
S'img_05166.jpg'
p2324
sa(dp2325
g3
(lp2326
sg8
g10
sg11
S'img_05152.jpg'
p2327
sa(dp2328
g3
(lp2329
sg8
g10
sg11
S'img_05041.jpg'
p2330
sa(dp2331
g3
(lp2332
sg8
g10
sg11
S'img_04952.jpg'
p2333
sa(dp2334
g3
(lp2335
sg8
g10
sg11
S'img_04594.jpg'
p2336
sa(dp2337
g3
(lp2338
sg8
g10
sg11
S'img_04526.jpg'
p2339
sa(dp2340
g3
(lp2341
sg8
g10
sg11
S'img_04516.jpg'
p2342
sa(dp2343
g3
(lp2344
sg8
g10
sg11
S'img_04420.jpg'
p2345
sa(dp2346
g3
(lp2347
sg8
g10
sg11
S'img_04355.jpg'
p2348
sa(dp2349
g3
(lp2350
sg8
g10
sg11
S'img_04224.jpg'
p2351
sa(dp2352
g3
(lp2353
sg8
g10
sg11
S'img_04046.jpg'
p2354
sa(dp2355
g3
(lp2356
sg8
g10
sg11
S'img_03779.jpg'
p2357
sa(dp2358
g3
(lp2359
sg8
g10
sg11
S'img_03649.jpg'
p2360
sa(dp2361
g3
(lp2362
sg8
g10
sg11
S'img_03543.jpg'
p2363
sa(dp2364
g3
(lp2365
sg8
g10
sg11
S'img_03437.jpg'
p2366
sa(dp2367
g3
(lp2368
sg8
g10
sg11
S'img_03430.jpg'
p2369
sa(dp2370
g3
(lp2371
sg8
g10
sg11
S'img_03407.jpg'
p2372
sa(dp2373
g3
(lp2374
sg8
g10
sg11
S'img_02493.jpg'
p2375
sa(dp2376
g3
(lp2377
sg8
g10
sg11
S'img_02449.jpg'
p2378
sa(dp2379
g3
(lp2380
sg8
g10
sg11
S'img_01972.jpg'
p2381
sa(dp2382
g3
(lp2383
sg8
g10
sg11
S'img_01817.jpg'
p2384
sa(dp2385
g3
(lp2386
sg8
g10
sg11
S'img_01691.jpg'
p2387
sa(dp2388
g3
(lp2389
sg8
g10
sg11
S'img_01372.jpg'
p2390
sa(dp2391
g3
(lp2392
sg8
g10
sg11
S'img_00916.jpg'
p2393
sa(dp2394
g3
(lp2395
sg8
g10
sg11
S'img_00778.jpg'
p2396
sa(dp2397
g3
(lp2398
sg8
g10
sg11
S'img_00218.jpg'
p2399
sa(dp2400
g3
(lp2401
sg8
g10
sg11
S'img_00052.jpg'
p2402
sa.