(lp1
(dp2
S'annotations'
p3
(lp4
(dp5
S'height'
p6
F139
sS'width'
p7
F318
sS'y'
F134
sS'x'
F510
sS'class'
p8
S'BET'
p9
sa(dp10
g6
F211
sg7
F369
sS'y'
F308
sS'x'
F376
sg8
g9
sa(dp11
g6
F225
sg7
F178
sS'y'
F312
sS'x'
F120
sg8
g9
sa(dp12
g6
F190
sg7
F88
sS'y'
F172
sS'x'
F64
sg8
g9
sa(dp13
g6
F67
sg7
F155
sS'y'
F124
sS'x'
F43
sg8
g9
sasg8
S'image'
p14
sS'filename'
p15
S'img_07825.jpg'
p16
sa(dp17
g3
(lp18
(dp19
g6
F226
sg7
F324
sS'y'
F135
sS'x'
F289
sg8
g9
sa(dp20
g6
F195
sg7
F352
sS'y'
F82
sS'x'
F596
sg8
g9
sasg8
g14
sg15
S'img_07804.jpg'
p21
sa(dp22
g3
(lp23
(dp24
g6
F104
sg7
F260
sS'y'
F115
sS'x'
F812
sg8
g9
sasg8
g14
sg15
S'img_07795.jpg'
p25
sa(dp26
g3
(lp27
(dp28
g6
F189
sg7
F339
sS'y'
F159
sS'x'
F291
sg8
g9
sa(dp29
g6
F194
sg7
F342
sS'y'
F87
sS'x'
F610
sg8
g9
sasg8
g14
sg15
S'img_07734.jpg'
p30
sa(dp31
g3
(lp32
(dp33
g6
F236
sg7
F382
sS'y'
F75
sS'x'
F532
sg8
g9
sasg8
g14
sg15
S'img_07721.jpg'
p34
sa(dp35
g3
(lp36
(dp37
g6
F472
sg7
F163
sS'y'
F329
sS'x'
F329
sg8
g9
sasg8
g14
sg15
S'img_07620.jpg'
p38
sa(dp39
g3
(lp40
(dp41
g6
F214
sg7
F418
sS'y'
F147
sS'x'
F422
sg8
g9
sasg8
g14
sg15
S'img_07581.jpg'
p42
sa(dp43
g3
(lp44
(dp45
g6
F199
sg7
F346
sS'y'
F35
sS'x'
F650
sg8
g9
sa(dp46
g6
F241
sg7
F167
sS'y'
F169
sS'x'
F124
sg8
g9
sasg8
g14
sg15
S'img_07579.jpg'
p47
sa(dp48
g3
(lp49
(dp50
g6
F322
sg7
F458
sS'y'
F424
sS'x'
F416
sg8
g9
sasg8
g14
sg15
S'img_07545.jpg'
p51
sa(dp52
g3
(lp53
(dp54
g6
F242
sg7
F173
sS'y'
F173
sS'x'
F127
sg8
g9
sa(dp55
g6
F180
sg7
F276
sS'y'
F76
sS'x'
F705
sg8
g9
sasg8
g14
sg15
S'img_07519.jpg'
p56
sa(dp57
g3
(lp58
(dp59
g6
F228
sg7
F512
sS'y'
F155
sS'x'
F460
sg8
g9
sasg8
g14
sg15
S'img_07518.jpg'
p60
sa(dp61
g3
(lp62
sg8
g14
sg15
S'img_07440.jpg'
p63
sa(dp64
g3
(lp65
(dp66
g6
F189
sg7
F87
sS'y'
F329
sS'x'
F540
sg8
g9
sasg8
g14
sg15
S'img_07410.jpg'
p67
sa(dp68
g3
(lp69
(dp70
g6
F457
sg7
F194
sS'y'
F283
sS'x'
F234
sg8
g9
sasg8
g14
sg15
S'img_07378.jpg'
p71
sa(dp72
g3
(lp73
(dp74
g6
F236
sg7
F305
sS'y'
F416
sS'x'
F376
sg8
g9
sasg8
g14
sg15
S'img_07321.jpg'
p75
sa(dp76
g3
(lp77
(dp78
g6
F215
sg7
F354
sS'y'
F87
sS'x'
F594
sg8
g9
sa(dp79
g6
F231
sg7
F336
sS'y'
F132
sS'x'
F281
sg8
g9
sasg8
g14
sg15
S'img_07311.jpg'
p80
sa(dp81
g3
(lp82
(dp83
g6
F309
sg7
F277
sS'y'
F250
sS'x'
F809
sg8
g9
sasg8
g14
sg15
S'img_07164.jpg'
p84
sa(dp85
g3
(lp86
(dp87
g6
F207
sg7
F111
sS'y'
F267
sS'x'
F194
sg8
g9
sasg8
g14
sg15
S'img_07059.jpg'
p88
sa(dp89
g3
(lp90
(dp91
g6
F440
sg7
F183
sS'y'
F163
sS'x'
F215
sg8
g9
sasg8
g14
sg15
S'img_07015.jpg'
p92
sa(dp93
g3
(lp94
(dp95
g6
F134
sg7
F304
sS'y'
F136
sS'x'
F513
sg8
g9
sa(dp96
g6
F161
sg7
F277
sS'y'
F335
sS'x'
F450
sg8
g9
sa(dp97
g6
F237
sg7
F172
sS'y'
F306
sS'x'
F123
sg8
g9
sa(dp98
g6
F203
sg7
F97
sS'y'
F168
sS'x'
F61
sg8
g9
sa(dp99
g6
F70
sg7
F132
sS'y'
F123
sS'x'
F36
sg8
g9
sa(dp100
g6
F217
sg7
F224
sS'y'
F95
sS'x'
F921
sg8
g9
sasg8
g14
sg15
S'img_07007.jpg'
p101
sa(dp102
g3
(lp103
(dp104
g6
F204
sg7
F93
sS'y'
F320
sS'x'
F534
sg8
g9
sasg8
g14
sg15
S'img_06997.jpg'
p105
sa(dp106
g3
(lp107
(dp108
g6
F195
sg7
F209
sS'y'
F450
sS'x'
F578
sg8
g9
sa(dp109
g6
F138
sg7
F95
sS'y'
F320
sS'x'
F675
sg8
g9
sasg8
g14
sg15
S'img_06983.jpg'
p110
sa(dp111
g3
(lp112
(dp113
g6
F95
sg7
F211
sS'y'
F434
sS'x'
F403
sg8
g9
sasg8
g14
sg15
S'img_06867.jpg'
p114
sa(dp115
g3
(lp116
(dp117
g6
F147
sg7
F391
sS'y'
F392
sS'x'
F701
sg8
g9
sasg8
g14
sg15
S'img_06862.jpg'
p118
sa(dp119
g3
(lp120
(dp121
g6
F118
sg7
F371
sS'y'
F53
sS'x'
F415
sg8
g9
sa(dp122
g6
F137
sg7
F372
sS'y'
F162
sS'x'
F509
sg8
g9
sa(dp123
g6
F281
sg7
F372
sS'y'
F299
sS'x'
F367
sg8
g9
sa(dp124
g6
F217
sg7
F176
sS'y'
F312
sS'x'
F124
sg8
g9
sa(dp125
g6
F77
sg7
F162
sS'y'
F119
sS'x'
F40
sg8
g9
sa(dp126
g6
F195
sg7
F69
sS'y'
F166
sS'x'
F84
sg8
g9
sasg8
g14
sg15
S'img_06827.jpg'
p127
sa(dp128
g3
(lp129
(dp130
g6
F309
sg7
F229
sS'y'
F108
sS'x'
F772
sg8
g9
sasg8
g14
sg15
S'img_06825.jpg'
p131
sa(dp132
g3
(lp133
(dp134
g6
F249
sg7
F516
sS'y'
F18
sS'x'
F503
sg8
g9
sasg8
g14
sg15
S'img_06777.jpg'
p135
sa(dp136
g3
(lp137
(dp138
g6
F247
sg7
F321
sS'y'
F442
sS'x'
F450
sg8
g9
sasg8
g14
sg15
S'img_06776.jpg'
p139
sa(dp140
g3
(lp141
(dp142
g6
F316
sg7
F262
sS'y'
F237
sS'x'
F810
sg8
g9
sasg8
g14
sg15
S'img_06772.jpg'
p143
sa(dp144
g3
(lp145
(dp146
g6
F159
sg7
F397
sS'y'
F192
sS'x'
F443
sg8
g9
sa(dp147
g6
F124
sg7
F301
sS'y'
F302
sS'x'
F819
sg8
g9
sa(dp148
g6
F158
sg7
F330
sS'y'
F295
sS'x'
F261
sg8
g9
sasg8
g14
sg15
S'img_06636.jpg'
p149
sa(dp150
g3
(lp151
(dp152
g6
F93
sg7
F190
sS'y'
F390
sS'x'
F344
sg8
g9
sasg8
g14
sg15
S'img_06623.jpg'
p153
sa(dp154
g3
(lp155
(dp156
g6
F133
sg7
F259
sS'y'
F91
sS'x'
F774
sg8
g9
sasg8
g14
sg15
S'img_06613.jpg'
p157
sa(dp158
g3
(lp159
(dp160
g6
F166
sg7
F292
sS'y'
F251
sS'x'
F515
sg8
g9
sasg8
g14
sg15
S'img_06575.jpg'
p161
sa(dp162
g3
(lp163
(dp164
g6
F153
sg7
F399
sS'y'
F176
sS'x'
F631
sg8
g9
sasg8
g14
sg15
S'img_06542.jpg'
p165
sa(dp166
g3
(lp167
(dp168
g6
F96
sg7
F206
sS'y'
F411
sS'x'
F320
sg8
g9
sasg8
g14
sg15
S'img_06532.jpg'
p169
sa(dp170
g3
(lp171
(dp172
g6
F250
sg7
F181
sS'y'
F165
sS'x'
F119
sg8
g9
sa(dp173
g6
F195
sg7
F341
sS'y'
F21
sS'x'
F652
sg8
g9
sasg8
g14
sg15
S'img_06453.jpg'
p174
sa(dp175
g3
(lp176
(dp177
g6
F297
sg7
F209
sS'y'
F252
sS'x'
F817
sg8
g9
sasg8
g14
sg15
S'img_06384.jpg'
p178
sa(dp179
g3
(lp180
(dp181
g6
F188
sg7
F96
sS'y'
F348
sS'x'
F621
sg8
g9
sasg8
g14
sg15
S'img_06287.jpg'
p182
sa(dp183
g3
(lp184
(dp185
g6
F151
sg7
F430
sS'y'
F167
sS'x'
F525
sg8
g9
sasg8
g14
sg15
S'img_06277.jpg'
p186
sa(dp187
g3
(lp188
(dp189
g6
F118
sg7
F233
sS'y'
F394
sS'x'
F388
sg8
g9
sasg8
g14
sg15
S'img_06035.jpg'
p190
sa(dp191
g3
(lp192
(dp193
g6
F449
sg7
F227
sS'y'
F231
sS'x'
F236
sg8
g9
sasg8
g14
sg15
S'img_05986.jpg'
p194
sa(dp195
g3
(lp196
(dp197
g6
F231
sg7
F356
sS'y'
F134
sS'x'
F270
sg8
g9
sa(dp198
g6
F180
sg7
F361
sS'y'
F82
sS'x'
F592
sg8
g9
sasg8
g14
sg15
S'img_05974.jpg'
p199
sa(dp200
g3
(lp201
(dp202
g6
F171
sg7
F305
sS'y'
F155
sS'x'
F829
sg8
g9
sasg8
g14
sg15
S'img_05874.jpg'
p203
sa(dp204
g3
(lp205
(dp206
g6
F247
sg7
F339
sS'y'
F445
sS'x'
F444
sg8
g9
sasg8
g14
sg15
S'img_05858.jpg'
p207
sa(dp208
g3
(lp209
(dp210
g6
F309
sg7
F247
sS'y'
F256
sS'x'
F806
sg8
g9
sasg8
g14
sg15
S'img_05848.jpg'
p211
sa(dp212
g3
(lp213
(dp214
g6
F302
sg7
F242
sS'y'
F253
sS'x'
F811
sg8
g9
sasg8
g14
sg15
S'img_05841.jpg'
p215
sa(dp216
g3
(lp217
(dp218
g6
F184
sg7
F110
sS'y'
F341
sS'x'
F519
sg8
g9
sasg8
g14
sg15
S'img_05797.jpg'
p219
sa(dp220
g3
(lp221
(dp222
g6
F198
sg7
F147
sS'y'
F56
sS'x'
F261
sg8
g9
sasg8
g14
sg15
S'img_05796.jpg'
p223
sa(dp224
g3
(lp225
(dp226
g6
F176
sg7
F156
sS'y'
F96
sS'x'
F240
sg8
g9
sasg8
g14
sg15
S'img_05784.jpg'
p227
sa(dp228
g3
(lp229
(dp230
g6
F307
sg7
F281
sS'y'
F249
sS'x'
F792
sg8
g9
sasg8
g14
sg15
S'img_05748.jpg'
p231
sa(dp232
g3
(lp233
(dp234
g6
F200
sg7
F371
sS'y'
F108
sS'x'
F704
sg8
g9
sasg8
g14
sg15
S'img_05736.jpg'
p235
sa(dp236
g3
(lp237
(dp238
g6
F158
sg7
F321
sS'y'
F258
sS'x'
F503
sg8
g9
sasg8
g14
sg15
S'img_05728.jpg'
p239
sa(dp240
g3
(lp241
(dp242
g6
F261
sg7
F337
sS'y'
F515
sS'x'
F609
sg8
g9
sasg8
g14
sg15
S'img_05658.jpg'
p243
sa(dp244
g3
(lp245
(dp246
g6
F279
sg7
F328
sS'y'
F452
sS'x'
F491
sg8
g9
sasg8
g14
sg15
S'img_05616.jpg'
p247
sa(dp248
g3
(lp249
(dp250
g6
F175
sg7
F417
sS'y'
F162
sS'x'
F486
sg8
g9
sasg8
g14
sg15
S'img_05561.jpg'
p251
sa(dp252
g3
(lp253
sg8
g14
sg15
S'img_05450.jpg'
p254
sa(dp255
g3
(lp256
(dp257
g6
F204
sg7
F362
sS'y'
F154
sS'x'
F271
sg8
g9
sa(dp258
g6
F207
sg7
F354
sS'y'
F81
sS'x'
F596
sg8
g9
sasg8
g14
sg15
S'img_05431.jpg'
p259
sa(dp260
g3
(lp261
(dp262
g6
F205
sg7
F340
sS'y'
F156
sS'x'
F284
sg8
g9
sa(dp263
g6
F192
sg7
F352
sS'y'
F85
sS'x'
F602
sg8
g9
sasg8
g14
sg15
S'img_05402.jpg'
p264
sa(dp265
g3
(lp266
(dp267
g6
F190
sg7
F197
sS'y'
F289
sS'x'
F2
sg8
g9
sasg8
g14
sg15
S'img_05369.jpg'
p268
sa(dp269
g3
(lp270
(dp271
g6
F208
sg7
F548
sS'y'
F170
sS'x'
F387
sg8
g9
sasg8
g14
sg15
S'img_05351.jpg'
p272
sa(dp273
g3
(lp274
(dp275
g6
F222
sg7
F146
sS'y'
F388
sS'x'
F524
sg8
g9
sasg8
g14
sg15
S'img_05346.jpg'
p276
sa(dp277
g3
(lp278
(dp279
g6
F105
sg7
F198
sS'y'
F407
sS'x'
F315
sg8
g9
sasg8
g14
sg15
S'img_05344.jpg'
p280
sa(dp281
g3
(lp282
(dp283
g6
F313
sg7
F268
sS'y'
F247
sS'x'
F806
sg8
g9
sasg8
g14
sg15
S'img_05314.jpg'
p284
sa(dp285
g3
(lp286
(dp287
g6
F248
sg7
F534
sS'y'
F20
sS'x'
F493
sg8
g9
sasg8
g14
sg15
S'img_05262.jpg'
p288
sa(dp289
g3
(lp290
(dp291
g6
F85
sg7
F183
sS'y'
F402
sS'x'
F351
sg8
g9
sasg8
g14
sg15
S'img_05255.jpg'
p292
sa(dp293
g3
(lp294
(dp295
g6
F455
sg7
F160
sS'y'
F211
sS'x'
F241
sg8
g9
sasg8
g14
sg15
S'img_05252.jpg'
p296
sa(dp297
g3
(lp298
(dp299
g6
F316
sg7
F270
sS'y'
F235
sS'x'
F806
sg8
g9
sasg8
g14
sg15
S'img_05240.jpg'
p300
sa(dp301
g3
(lp302
(dp303
g6
F240
sg7
F390
sS'y'
F611
sS'x'
F420
sg8
g9
sasg8
g14
sg15
S'img_05194.jpg'
p304
sa(dp305
g3
(lp306
(dp307
g6
F239
sg7
F374
sS'y'
F116
sS'x'
F603
sg8
g9
sasg8
g14
sg15
S'img_05164.jpg'
p308
sa(dp309
g3
(lp310
(dp311
g6
F247
sg7
F339
sS'y'
F123
sS'x'
F283
sg8
g9
sa(dp312
g6
F181
sg7
F376
sS'y'
F85
sS'x'
F594
sg8
g9
sasg8
g14
sg15
S'img_05110.jpg'
p313
sa(dp314
g3
(lp315
(dp316
g6
F259
sg7
F351
sS'y'
F107
sS'x'
F609
sg8
g9
sasg8
g14
sg15
S'img_05069.jpg'
p317
sa(dp318
g3
(lp319
(dp320
g6
F209
sg7
F349
sS'y'
F151
sS'x'
F272
sg8
g9
sa(dp321
g6
F196
sg7
F360
sS'y'
F87
sS'x'
F588
sg8
g9
sasg8
g14
sg15
S'img_05065.jpg'
p322
sa(dp323
g3
(lp324
(dp325
g6
F154
sg7
F105
sS'y'
F47
sS'x'
F302
sg8
g9
sasg8
g14
sg15
S'img_04989.jpg'
p326
sa(dp327
g3
(lp328
(dp329
g6
F169
sg7
F95
sS'y'
F348
sS'x'
F537
sg8
g9
sasg8
g14
sg15
S'img_04972.jpg'
p330
sa(dp331
g3
(lp332
(dp333
g6
F234
sg7
F399
sS'y'
F73
sS'x'
F567
sg8
g9
sa(dp334
g6
F235
sg7
F335
sS'y'
F116
sS'x'
F280
sg8
g9
sasg8
g14
sg15
S'img_04938.jpg'
p335
sa(dp336
g3
(lp337
sg8
g14
sg15
S'img_04931.jpg'
p338
sa(dp339
g3
(lp340
(dp341
g6
F129
sg7
F281
sS'y'
F97
sS'x'
F770
sg8
g9
sasg8
g14
sg15
S'img_04914.jpg'
p342
sa(dp343
g3
(lp344
(dp345
g6
F98
sg7
F193
sS'y'
F418
sS'x'
F418
sg8
g9
sasg8
g14
sg15
S'img_04891.jpg'
p346
sa(dp347
g3
(lp348
(dp349
g6
F94
sg7
F190
sS'y'
F392
sS'x'
F350
sg8
g9
sasg8
g14
sg15
S'img_04853.jpg'
p350
sa(dp351
g3
(lp352
(dp353
g6
F225
sg7
F341
sS'y'
F97
sS'x'
F725
sg8
g9
sa(dp354
g6
F145
sg7
F191
sS'y'
F81
sS'x'
F397
sg8
S'LAG'
p355
sasg8
g14
sg15
S'img_04815.jpg'
p356
sa(dp357
g3
(lp358
(dp359
g6
F182
sg7
F346
sS'y'
F160
sS'x'
F773
sg8
g9
sasg8
g14
sg15
S'img_04744.jpg'
p360
sa(dp361
g3
(lp362
(dp363
g6
F175
sg7
F97
sS'y'
F344
sS'x'
F534
sg8
g9
sasg8
g14
sg15
S'img_04732.jpg'
p364
sa(dp365
g3
(lp366
(dp367
g6
F473
sg7
F182
sS'y'
F294
sS'x'
F305
sg8
g9
sasg8
g14
sg15
S'img_04718.jpg'
p368
sa(dp369
g3
(lp370
(dp371
g6
F223
sg7
F285
sS'y'
F407
sS'x'
F355
sg8
g9
sasg8
g14
sg15
S'img_04672.jpg'
p372
sa(dp373
g3
(lp374
(dp375
g6
F190
sg7
F190
sS'y'
F448
sS'x'
F582
sg8
g9
sa(dp376
g6
F125
sg7
F77
sS'y'
F338
sS'x'
F686
sg8
g9
sasg8
g14
sg15
S'img_04670.jpg'
p377
sa(dp378
g3
(lp379
(dp380
g6
F192
sg7
F386
sS'y'
F212
sS'x'
F190
sg8
g9
sasg8
g14
sg15
S'img_04619.jpg'
p381
sa(dp382
g3
(lp383
(dp384
g6
F191
sg7
F299
sS'y'
F234
sS'x'
F511
sg8
g9
sasg8
g14
sg15
S'img_04568.jpg'
p385
sa(dp386
g3
(lp387
(dp388
g6
F154
sg7
F362
sS'y'
F122
sS'x'
F509
sg8
g9
sa(dp389
g6
F279
sg7
F374
sS'y'
F294
sS'x'
F373
sg8
g9
sa(dp390
g6
F229
sg7
F183
sS'y'
F308
sS'x'
F114
sg8
g9
sa(dp391
g6
F195
sg7
F96
sS'y'
F171
sS'x'
F55
sg8
g9
sa(dp392
g6
F83
sg7
F153
sS'y'
F113
sS'x'
F45
sg8
g9
sasg8
g14
sg15
S'img_04557.jpg'
p393
sa(dp394
g3
(lp395
(dp396
g6
F93
sg7
F186
sS'y'
F387
sS'x'
F365
sg8
g9
sasg8
g14
sg15
S'img_04464.jpg'
p397
sa(dp398
g3
(lp399
(dp400
g6
F179
sg7
F187
sS'y'
F461
sS'x'
F578
sg8
g9
sa(dp401
g6
F129
sg7
F96
sS'y'
F344
sS'x'
F676
sg8
g9
sasg8
g14
sg15
S'img_04463.jpg'
p402
sa(dp403
g3
(lp404
(dp405
g6
F312
sg7
F251
sS'y'
F250
sS'x'
F809
sg8
g9
sasg8
g14
sg15
S'img_04327.jpg'
p406
sa(dp407
g3
(lp408
(dp409
g6
F211
sg7
F344
sS'y'
F151
sS'x'
F283
sg8
g9
sa(dp410
g6
F191
sg7
F353
sS'y'
F94
sS'x'
F601
sg8
g9
sasg8
g14
sg15
S'img_04304.jpg'
p411
sa(dp412
g3
(lp413
(dp414
g6
F470
sg7
F184
sS'y'
F278
sS'x'
F295
sg8
g9
sasg8
g14
sg15
S'img_04289.jpg'
p415
sa(dp416
g3
(lp417
(dp418
g6
F220
sg7
F333
sS'y'
F645
sS'x'
F634
sg8
g9
sasg8
g14
sg15
S'img_04227.jpg'
p419
sa(dp420
g3
(lp421
(dp422
g6
F273
sg7
F334
sS'y'
F516
sS'x'
F623
sg8
g9
sasg8
g14
sg15
S'img_04185.jpg'
p423
sa(dp424
g3
(lp425
sg8
g14
sg15
S'img_04179.jpg'
p426
sa(dp427
g3
(lp428
(dp429
g6
F213
sg7
F398
sS'y'
F217
sS'x'
F218
sg8
g9
sasg8
g14
sg15
S'img_04158.jpg'
p430
sa(dp431
g3
(lp432
sg8
g14
sg15
S'img_04048.jpg'
p433
sa(dp434
g3
(lp435
(dp436
g6
F102
sg7
F213
sS'y'
F429
sS'x'
F388
sg8
g9
sasg8
g14
sg15
S'img_04042.jpg'
p437
sa(dp438
g3
(lp439
(dp440
g6
F206
sg7
F337
sS'y'
F104
sS'x'
F731
sg8
g9
sa(dp441
g6
F155
sg7
F169
sS'y'
F75
sS'x'
F422
sg8
g355
sasg8
g14
sg15
S'img_04039.jpg'
p442
sa(dp443
g3
(lp444
(dp445
g6
F162
sg7
F310
sS'y'
F258
sS'x'
F510
sg8
g9
sasg8
g14
sg15
S'img_04033.jpg'
p446
sa(dp447
g3
(lp448
(dp449
g6
F229
sg7
F289
sS'y'
F398
sS'x'
F336
sg8
g9
sasg8
g14
sg15
S'img_04028.jpg'
p450
sa(dp451
g3
(lp452
(dp453
g6
F209
sg7
F348
sS'y'
F105
sS'x'
F722
sg8
g9
sa(dp454
g6
F170
sg7
F217
sS'y'
F59
sS'x'
F377
sg8
g355
sasg8
g14
sg15
S'img_04022.jpg'
p455
sa(dp456
g3
(lp457
(dp458
g6
F172
sg7
F447
sS'y'
F176
sS'x'
F435
sg8
g9
sasg8
g14
sg15
S'img_03918.jpg'
p459
sa(dp460
g3
(lp461
(dp462
g6
F200
sg7
F130
sS'y'
F398
sS'x'
F538
sg8
g9
sasg8
g14
sg15
S'img_03881.jpg'
p463
sa(dp464
g3
(lp465
(dp466
g6
F145
sg7
F382
sS'y'
F190
sS'x'
F442
sg8
g9
sa(dp467
g6
F127
sg7
F307
sS'y'
F298
sS'x'
F811
sg8
g9
sa(dp468
g6
F173
sg7
F330
sS'y'
F284
sS'x'
F257
sg8
g9
sasg8
g14
sg15
S'img_03846.jpg'
p469
sa(dp470
g3
(lp471
(dp472
g6
F284
sg7
F328
sS'y'
F516
sS'x'
F622
sg8
g9
sa(dp473
g6
F114
sg7
F215
sS'y'
F235
sS'x'
F107
sg8
g9
sasg8
g14
sg15
S'img_03833.jpg'
p474
sa(dp475
g3
(lp476
(dp477
g6
F220
sg7
F325
sS'y'
F428
sS'x'
F378
sg8
g9
sasg8
g14
sg15
S'img_03817.jpg'
p478
sa(dp479
g3
(lp480
(dp481
g6
F119
sg7
F238
sS'y'
F107
sS'x'
F854
sg8
g9
sasg8
g14
sg15
S'img_03813.jpg'
p482
sa(dp483
g3
(lp484
(dp485
g6
F313
sg7
F252
sS'y'
F253
sS'x'
F808
sg8
g9
sasg8
g14
sg15
S'img_03759.jpg'
p486
sa(dp487
g3
(lp488
(dp489
g6
F185
sg7
F81
sS'y'
F337
sS'x'
F547
sg8
g9
sasg8
g14
sg15
S'img_03723.jpg'
p490
sa(dp491
g3
(lp492
(dp493
g6
F228
sg7
F377
sS'y'
F132
sS'x'
F642
sg8
g9
sasg8
g14
sg15
S'img_03708.jpg'
p494
sa(dp495
g3
(lp496
(dp497
g6
F95
sg7
F231
sS'y'
F378
sS'x'
F358
sg8
g9
sasg8
g14
sg15
S'img_03647.jpg'
p498
sa(dp499
g3
(lp500
(dp501
g6
F224
sg7
F147
sS'y'
F392
sS'x'
F527
sg8
g9
sasg8
g14
sg15
S'img_03565.jpg'
p502
sa(dp503
g3
(lp504
(dp505
g6
F189
sg7
F93
sS'y'
F336
sS'x'
F537
sg8
g9
sasg8
g14
sg15
S'img_03453.jpg'
p506
sa(dp507
g3
(lp508
(dp509
g6
F186
sg7
F81
sS'y'
F330
sS'x'
F544
sg8
g9
sasg8
g14
sg15
S'img_03371.jpg'
p510
sa(dp511
g3
(lp512
(dp513
g6
F170
sg7
F439
sS'y'
F166
sS'x'
F606
sg8
g9
sasg8
g14
sg15
S'img_03366.jpg'
p514
sa(dp515
g3
(lp516
(dp517
g6
F205
sg7
F477
sS'y'
F215
sS'x'
F380
sg8
g9
sasg8
g14
sg15
S'img_03347.jpg'
p518
sa(dp519
g3
(lp520
(dp521
g6
F302.79572321946694
sg7
F510.59670974263065
sS'y'
F442.91295984651447
sS'x'
F539.09513075152165
sg8
g9
sasg8
g14
sg15
S'img_03315.jpg'
p522
sa(dp523
g3
(lp524
(dp525
g6
F179.30256551427266
sg7
F197.11407864482953
sS'y'
F455.97473614225618
sS'x'
F573.53072280393155
sg8
g9
sa(dp526
g6
F134.18006558352852
sg7
F90.244999861488168
sS'y'
F332.48157843706178
sS'x'
F673.27519633505017
sg8
g9
sasg8
g14
sg15
S'img_03287.jpg'
p527
sa(dp528
g3
(lp529
(dp530
g6
F195.92664443612571
sg7
F464.28677560318266
sS'y'
F231.54967069723946
sS'x'
F257.67322328872291
sg8
g9
sasg8
g14
sg15
S'img_03184.jpg'
p531
sa(dp532
g3
(lp533
(dp534
g6
F160.30361817501193
sg7
F281.4219074627988
sS'y'
F256.48578908001912
sS'x'
F533.15795970800264
sg8
g9
sasg8
g14
sg15
S'img_03051.jpg'
p535
sa(dp536
g3
(lp537
(dp538
g6
F206.61355231445987
sg7
F417.9768414637349
sS'y'
F332.48157843706178
sS'x'
F575.90559122133914
sg8
g9
sasg8
g14
sg15
S'img_02981.jpg'
p539
sa(dp540
g3
(lp541
(dp542
g6
F169.8030918446423
sg7
F338.41874948058069
sS'y'
F24.936118382779636
sS'x'
F678.02493316986534
sg8
g9
sa(dp543
g6
F244.6114469929812
sg7
F191.17690760131052
sS'y'
F165.0533550098271
sS'x'
F119.930855079083
sg8
g9
sasg8
g14
sg15
S'img_02969.jpg'
p544
sa(dp545
g3
(lp546
sg8
g14
sg15
S'img_02967.jpg'
p547
sa(dp548
g3
(lp549
sg8
g14
sg15
S'img_02840.jpg'
p550
sa(dp551
g3
(lp552
sg8
g14
sg15
S'img_02818.jpg'
p553
sa(dp554
g3
(lp555
(dp556
g6
F483.28572294244339
sg7
F166.24078921853089
sS'y'
F207.80098652316363
sS'x'
F275.48473641927978
sg8
g9
sasg8
g14
sg15
S'img_02757.jpg'
p557
sa(dp558
g3
(lp559
(dp560
g6
F173.36539447075361
sg7
F302.79572321946699
sS'y'
F194.73921022742192
sS'x'
F314.67006530650491
sg8
g9
sa(dp561
g6
F211.36328914927498
sg7
F402.54019675058549
sS'y'
F156.74131554890056
sS'x'
F453.59986772484859
sg8
g9
sa(dp562
g6
F135.36749979223231
sg7
F319.41980214132013
sS'y'
F299.23342059335562
sS'x'
F820.51703821432034
sg8
g9
sasg8
g14
sg15
S'img_02742.jpg'
p563
sa(dp564
g3
(lp565
(dp566
g6
F197.11407864482948
sg7
F490.41032819466614
sS'y'
F172.17796026204985
sS'x'
F509.4092755339268
sg8
g9
sasg8
g14
sg15
S'img_02736.jpg'
p567
sa(dp568
g3
(lp569
(dp570
g6
F208.98842073186745
sg7
F526.03335445578
sS'y'
F181.67743393168018
sS'x'
F425.10144671595759
sg8
g9
sasg8
g14
sg15
S'img_02696.jpg'
p571
sa(dp572
g3
(lp573
(dp574
g6
F104.49421036593367
sg7
F213.73815756668256
sS'y'
F409.6648020028083
sS'x'
F317.04493372391249
sg8
g9
sasg8
g14
sg15
S'img_02647.jpg'
p575
sa(dp576
g3
(lp577
(dp578
g6
F198.30151285353327
sg7
F134.18006558352852
sS'y'
F260.04809170613049
sS'x'
F188.80203918390293
sg8
g9
sasg8
g14
sg15
S'img_02554.jpg'
p579
sa(dp580
g3
(lp581
(dp582
g6
F182.864868140384
sg7
F292.10881534113287
sS'y'
F242.23657857557359
sS'x'
F517.7213149948534
sg8
g9
sasg8
g14
sg15
S'img_02553.jpg'
p583
sa(dp584
g3
(lp585
(dp586
g6
F141.30467083575127
sg7
F332.48157843706184
sS'y'
F140.11723662704748
sS'x'
F503.47210449040784
sg8
g9
sa(dp587
g6
F119.93085507908302
sg7
F249.36118382779637
sS'y'
F91.432434070191988
sS'x'
F781.33170932709527
sg8
g9
sa(dp588
g6
F252.92348645390774
sg7
F364.5423020720641
sS'y'
F309.92032847168974
sS'x'
F381.1663809939173
sg8
g9
sa(dp589
g6
F207.80098652316366
sg7
F173.36539447075364
sS'y'
F314.67006530650491
sS'x'
F115.18111824426784
sg8
g9
sasg8
g14
sg15
S'img_02498.jpg'
p590
sa(dp591
g3
(lp592
sg8
g14
sg15
S'img_02358.jpg'
p593
sa(dp594
g3
(lp595
(dp596
g6
F201.86381547964467
sg7
F415.60197304632732
sS'y'
F223.23763123631292
sS'x'
F236.29940753205463
sg8
g9
sasg8
g14
sg15
S'img_02343.jpg'
p597
sa(dp598
g3
(lp599
sg8
g14
sg15
S'img_02206.jpg'
p600
sa(dp601
g3
(lp602
(dp603
g6
F252.92348645390774
sg7
F531.9705254992989
sS'y'
F21.373815756668257
sS'x'
F489.22289398596234
sg8
g9
sasg8
g14
sg15
S'img_02196.jpg'
p604
sa(dp605
g3
(lp606
(dp607
g6
F427.47631513336518
sg7
F229.17480227983185
sS'y'
F391.85328887225143
sS'x'
F282.60934167150253
sg8
g9
sasg8
g14
sg15
S'img_02195.jpg'
p608
sa(dp609
g3
(lp610
(dp611
g6
F219.67532861020152
sg7
F146.05440767056643
sS'y'
F393.04072308095522
sS'x'
F524.84592024707615
sg8
g9
sasg8
g14
sg15
S'img_02168.jpg'
p612
sa(dp613
g3
(lp614
(dp615
g6
F174.55282867945743
sg7
F347.91822315021108
sS'y'
F118.74342087037921
sS'x'
F503.47210449040784
sg8
g9
sa(dp616
g6
F122.3057234964906
sg7
F293.29624954983672
sS'y'
F83.120394609265446
sS'x'
F695.83644630042215
sg8
g9
sa(dp617
g6
F255.29835487131533
sg7
F365.72973628076801
sS'y'
F290.92138113242908
sS'x'
F371.66690732428691
sg8
g9
sa(dp618
g6
F211.36328914927503
sg7
F187.61460497519914
sS'y'
F306.35802584557837
sS'x'
F113.99368403556404
sg8
g9
sa(dp619
g6
F5.9371710435189584
sg7
F11.874342087037803
sS'y'
F382.35381520262109
sS'x'
F1427.2959188619582
sg8
g9
sasg8
g14
sg15
S'img_02139.jpg'
p620
sa(dp621
g3
(lp622
(dp623
g6
F201.8638154796447
sg7
F206.61355231445987
sS'y'
F435.78835459429172
sS'x'
F577.09302543004299
sg8
g9
sasg8
g14
sg15
S'img_02138.jpg'
p624
sa(dp625
g3
(lp626
(dp627
g6
F89.057565652784376
sg7
F186.42717076649535
sS'y'
F404.91506516799313
sS'x'
F283.79677588020633
sg8
g9
sasg8
g14
sg15
S'img_02128.jpg'
p628
sa(dp629
g3
(lp630
(dp631
g6
F301.6082890107632
sg7
F216.11302598409009
sS'y'
F122.30572349649059
sS'x'
F778.95684090968768
sg8
g9
sasg8
g14
sg15
S'img_02115.jpg'
p632
sa(dp633
g3
(lp634
(dp635
g6
F207.80098652316363
sg7
F441.72552563781073
sS'y'
F222.05019702760913
sS'x'
F252.92348645390771
sg8
g9
sasg8
g14
sg15
S'img_02103.jpg'
p636
sa(dp637
g3
(lp638
(dp639
g6
F279.04703904539116
sg7
F366.9171704894718
sS'y'
F295.67111796724424
sS'x'
F368.10460469817554
sg8
g9
sasg8
g14
sg15
S'img_02097.jpg'
p640
sa(dp641
g3
(lp642
(dp643
g6
F188.80203918390293
sg7
F91.432434070192016
sS'y'
F339.60618368928453
sS'x'
F534.34539391670648
sg8
g9
sasg8
g14
sg15
S'img_02016.jpg'
p644
sa(dp645
g3
(lp646
(dp647
g6
F191.17690760131055
sg7
F350.29309156761872
sS'y'
F83.120394609265446
sS'x'
F638.83960428264015
sg8
g9
sasg8
g14
sg15
S'img_02007.jpg'
p648
sa(dp649
g3
(lp650
(dp651
g6
F220.86276281890537
sg7
F146.05440767056643
sS'y'
F388.29098624614005
sS'x'
F524.84592024707615
sg8
g9
sasg8
g14
sg15
S'img_01943.jpg'
p652
sa(dp653
g3
(lp654
(dp655
g6
F309.9203284716898
sg7
F238.6742759494623
sS'y'
F252.92348645390771
sS'x'
F811.01756454469
sg8
g9
sasg8
g14
sg15
S'img_01933.jpg'
p656
sa(dp657
g3
(lp658
(dp659
g6
F191.17690760131055
sg7
F479.72342031633207
sS'y'
F236.29940753205463
sS'x'
F507.03440711651922
sg8
g9
sasg8
g14
sg15
S'img_01915.jpg'
p660
sa(dp661
g3
(lp662
sg8
g14
sg15
S'img_01912.jpg'
p663
sa(dp664
g3
(lp665
(dp666
g6
F181.67743393168018
sg7
F426.28888092466138
sS'y'
F322.98210476743145
sS'x'
F89.057565652784405
sg8
g9
sasg8
g14
sg15
S'img_01905.jpg'
p667
sa(dp668
g3
(lp669
(dp670
g6
F315.8574995152087
sg7
F218.48789440149767
sS'y'
F250.54861803650013
sS'x'
F815.76730137950517
sg8
g9
sasg8
g14
sg15
S'img_01725.jpg'
p671
sa(dp672
g3
(lp673
(dp674
g6
F277.85960483668737
sg7
F324.1695389761353
sS'y'
F517.7213149948534
sS'x'
F622.21552536078707
sg8
g9
sasg8
g14
sg15
S'img_01707.jpg'
p675
sa(dp676
g3
(lp677
(dp678
g6
F175.74026288816123
sg7
F336.04388106317322
sS'y'
F163.86592080112331
sS'x'
F775.39453828357625
sg8
g9
sasg8
g14
sg15
S'img_01696.jpg'
p679
sa(dp680
g3
(lp681
(dp682
g6
F216.11302598409014
sg7
F119.93085507908302
sS'y'
F276.67217062798358
sS'x'
F174.55282867945743
sg8
g9
sasg8
g14
sg15
S'img_01668.jpg'
p683
sa(dp684
g3
(lp685
(dp686
g6
F229.17480227983191
sg7
F299.23342059335562
sS'y'
F460.72447297707134
sS'x'
F515.34644657744582
sg8
g9
sasg8
g14
sg15
S'img_01481.jpg'
p687
sa(dp688
g3
(lp689
(dp690
g6
F78.370657774450251
sg7
F186.42717076649535
sS'y'
F387.10355203743626
sS'x'
F365.72973628076795
sg8
g9
sasg8
g14
sg15
S'img_01477.jpg'
p691
sa(dp692
g3
(lp693
(dp694
g6
F281.42190746279874
sg7
F327.73184160224662
sS'y'
F505.84697290781543
sS'x'
F616.27835431726817
sg8
g9
sasg8
g14
sg15
S'img_01450.jpg'
p695
sa(dp696
g3
(lp697
(dp698
g6
F395.4155914983628
sg7
F175.74026288816123
sS'y'
F349.10565735891487
sS'x'
F312.29519688909733
sg8
g9
sasg8
g14
sg15
S'img_01440.jpg'
p699
sa(dp700
g3
(lp701
(dp702
g6
F248.17374961909258
sg7
F175.74026288816123
sS'y'
F163.86592080112331
sS'x'
F122.30572349649059
sg8
g9
sa(dp703
g6
F137.74236820963989
sg7
F353.85539419373015
sS'y'
F90.244999861488196
sS'x'
F713.64795943097909
sg8
g9
sasg8
g14
sg15
S'img_01351.jpg'
p704
sa(dp705
g3
(lp706
(dp707
g6
F318.23236793261628
sg7
F280.23447325409506
sS'y'
F237.48684174075842
sS'x'
F801.51809087505967
sg8
g9
sasg8
g14
sg15
S'img_01350.jpg'
p708
sa(dp709
g3
(lp710
(dp711
g6
F447.66269668132963
sg7
F179.30256551427263
sS'y'
F181.67743393168018
sS'x'
F230.36223648853567
sg8
g9
sasg8
g14
sg15
S'img_01343.jpg'
p712
sa(dp713
g3
(lp714
(dp715
g6
F223.23763123631295
sg7
F429.85118355077282
sS'y'
F346.73078894150729
sS'x'
F195.92664443612571
sg8
g9
sasg8
g14
sg15
S'img_01299.jpg'
p716
sa(dp717
g3
(lp718
(dp719
g6
F87.870131444080585
sg7
F170.99052605334606
sS'y'
F401.35276254188176
sS'x'
F355.04282840243383
sg8
g9
sasg8
g14
sg15
S'img_01264.jpg'
p720
sa(dp721
g3
(lp722
sg8
g14
sg15
S'img_01234.jpg'
p723
sa(dp724
g3
(lp725
sg8
g14
sg15
S'img_01218.jpg'
p726
sa(dp727
g3
(lp728
(dp729
g6
F109.24394720074888
sg7
F274.29730221057605
sS'y'
F104.49421036593371
sS'x'
F794.39348562283692
sg8
g9
sasg8
g14
sg15
S'img_01215.jpg'
p730
sa(dp731
g3
(lp732
(dp733
g6
F124.68059191389818
sg7
F366.91717048947174
sS'y'
F168.61565763593848
sS'x'
F503.47210449040784
sg8
g9
sa(dp734
g6
F250.54861803650016
sg7
F365.72973628076795
sS'y'
F298.04598638465183
sS'x'
F372.8543415329907
sg8
g9
sasg8
g14
sg15
S'img_01194.jpg'
p735
sa(dp736
g3
(lp737
(dp738
g6
F415.6019730463272
sg7
F236.29940753205463
sS'y'
F393.04072308095522
sS'x'
F252.92348645390771
sg8
g9
sasg8
g14
sg15
S'img_01166.jpg'
p739
sa(dp740
g3
(lp741
(dp742
g6
F269.54756537576083
sg7
F212.55072335797877
sS'y'
F4.7497368348151685
sS'x'
F545.03230179504055
sg8
g9
sasg8
g14
sg15
S'img_01118.jpg'
p743
sa(dp744
g3
(lp745
(dp746
g6
F464.28677560318272
sg7
F172.17796026204988
sS'y'
F213.73815756668259
sS'x'
F233.92453911464705
sg8
g9
sasg8
g14
sg15
S'img_01003.jpg'
p747
sa(dp748
g3
(lp749
(dp750
g6
F185.23973655779159
sg7
F353.85539419373004
sS'y'
F81.932960400561655
sS'x'
F637.65217007393642
sg8
g9
sa(dp751
g6
F236.29940753205466
sg7
F169.80309184464227
sS'y'
F170.99052605334606
sS'x'
F116.36855245297163
sg8
g9
sasg8
g14
sg15
S'img_01002.jpg'
p752
sa(dp753
g3
(lp754
(dp755
g6
F455.97473614225612
sg7
F173.36539447075367
sS'y'
F218.48789440149775
sS'x'
F218.48789440149775
sg8
g9
sasg8
g14
sg15
S'img_00923.jpg'
p756
sa(dp757
g3
(lp758
sg8
g14
sg15
S'img_00888.jpg'
p759
sa(dp760
g3
(lp761
sg8
g14
sg15
S'img_00883.jpg'
p762
sa(dp763
g3
(lp764
(dp765
g6
F440.53809142910688
sg7
F191.17690760131052
sS'y'
F368.10460469817554
sS'x'
F303.98315742817078
sg8
g9
sasg8
g14
sg15
S'img_00774.jpg'
p766
sa(dp767
g3
(lp768
(dp769
g6
F165.0533550098271
sg7
F142.49210504445503
sS'y'
F122.30572349649059
sS'x'
F237.48684174075842
sg8
g9
sasg8
g14
sg15
S'img_00771.jpg'
p770
sa(dp771
g3
(lp772
(dp773
g6
F402.54019675058555
sg7
F192.36434181001431
sS'y'
F383.54124941132488
sS'x'
F295.67111796724424
sg8
g9
sasg8
g14
sg15
S'img_00732.jpg'
p774
sa(dp775
g3
(lp776
sg8
g14
sg15
S'img_00630.jpg'
p777
sa(dp778
g3
(lp779
(dp780
g6
F290.92138113242902
sg7
F332.48157843706184
sS'y'
F572.34328859522782
sS'x'
F362.16743365465658
sg8
g9
sasg8
g14
sg15
S'img_00601.jpg'
p781
sa(dp782
g3
(lp783
(dp784
g6
F459.53703876836755
sg7
F163.86592080112334
sS'y'
F217.30046019279396
sS'x'
F223.23763123631292
sg8
g9
sasg8
g14
sg15
S'img_00583.jpg'
p785
sa(dp786
g3
(lp787
(dp788
g6
F286.17164429761385
sg7
F288.54651271502149
sS'y'
F212.5507233579788
sS'x'
F186.42717076649535
sg8
g9
sasg8
g14
sg15
S'img_00542.jpg'
p789
sa(dp790
g3
(lp791
(dp792
g6
F191.17690760131052
sg7
F420.35170988114237
sS'y'
F123.49315770519438
sS'x'
F697.023880509126
sg8
g9
sasg8
g14
sg15
S'img_00537.jpg'
p793
sa(dp794
g3
(lp795
(dp796
g6
F269.54756537576088
sg7
F322.98210476743145
sS'y'
F516.53388078614955
sS'x'
F630.52756482171367
sg8
g9
sasg8
g14
sg15
S'img_00531.jpg'
p797
sa(dp798
g3
(lp799
(dp800
g6
F189.98947339260673
sg7
F338.41874948058069
sS'y'
F119.930855079083
sS'x'
F724.33486730931315
sg8
g9
sasg8
g14
sg15
S'img_00491.jpg'
p801
sa(dp802
g3
(lp803
(dp804
g6
F241.04914436686977
sg7
F394.22815728965895
sS'y'
F313.48263109780112
sS'x'
F358.6051310285452
sg8
g9
sa(dp805
g6
F130.61776295741714
sg7
F347.91822315021113
sS'y'
F141.30467083575127
sS'x'
F499.90980186429647
sg8
g9
sa(dp806
g6
F224.42506544501674
sg7
F186.42717076649535
sS'y'
F317.04493372391249
sS'x'
F111.61881561815646
sg8
g9
sasg8
g14
sg15
S'img_00443.jpg'
p807
sa(dp808
g3
(lp809
(dp810
g6
F241.04914436686977
sg7
F326.54440739354288
sS'y'
F502.28467028170405
sS'x'
F583.03019647356189
sg8
g9
sasg8
g14
sg15
S'img_00441.jpg'
p811
sa(dp812
g3
(lp813
(dp814
g6
F168.61565763593848
sg7
F381.1663809939173
sS'y'
F173.36539447075364
sS'x'
F445.28782826392205
sg8
g9
sa(dp815
g6
F121.11828928778681
sg7
F303.98315742817078
sS'y'
F306.35802584557837
sS'x'
F816.95473558820902
sg8
g9
sa(dp816
g6
F185.23973655779159
sg7
F265.98526274964945
sS'y'
F235.11197332335084
sS'x'
F299.23342059335562
sg8
g9
sasg8
g14
sg15
S'img_00435.jpg'
p817
sa(dp818
g3
(lp819
sg8
g14
sg15
S'img_00379.jpg'
p820
sa(dp821
g3
(lp822
(dp823
g6
F172.17796026204988
sg7
F350.29309156761872
sS'y'
F90.244999861488196
sS'x'
F599.65427539541497
sg8
g9
sa(dp824
g6
F218.48789440149773
sg7
F346.73078894150729
sS'y'
F138.92980241834368
sS'x'
F270.73499958446462
sg8
g9
sasg8
g14
sg15
S'img_00363.jpg'
p825
sa(dp826
g3
(lp827
sg8
g14
sg15
S'img_00329.jpg'
p828
sa(dp829
g3
(lp830
(dp831
g6
F194.73921022742189
sg7
F206.61355231445984
sS'y'
F280.23447325409495
sS'x'
F3.5623026261113764
sg8
g9
sasg8
g14
sg15
S'img_00321.jpg'
p832
sa(dp833
g3
(lp834
(dp835
g6
F220.86276281890531
sg7
F489.2228939859624
sS'y'
F143.67953925315885
sS'x'
F454.78730193355238
sg8
g9
sasg8
g14
sg15
S'img_00259.jpg'
p836
sa(dp837
g3
(lp838
(dp839
g6
F419.16427567243858
sg7
F238.67427594946219
sS'y'
F389.47842045484384
sS'x'
F289.73394692372528
sg8
g9
sasg8
g14
sg15
S'img_00231.jpg'
p840
sa(dp841
g3
(lp842
sg8
g14
sg15
S'img_00225.jpg'
p843
sa(dp844
g3
(lp845
sg8
g14
sg15
S'img_00158.jpg'
p846
sa(dp847
g3
(lp848
sg8
g14
sg15
S'img_00107.jpg'
p849
sa.