(lp1
(dp2
S'annotations'
p3
(lp4
(dp5
S'height'
p6
F390
sS'width'
p7
F390
sS'y'
F153
sS'x'
F602
sS'class'
p8
S'LAG'
p9
sa(dp10
g6
F218
sg7
F368
sS'y'
F499
sS'x'
F677
sg8
g9
sasg8
S'image'
p11
sS'filename'
p12
S'img_07919.jpg'
p13
sa(dp14
g3
(lp15
(dp16
g6
F157
sg7
F199
sS'y'
F345
sS'x'
F682
sg8
g9
sa(dp17
g6
F127
sg7
F167
sS'y'
F289
sS'x'
F880
sg8
g9
sasg8
g11
sg12
S'img_07830.jpg'
p18
sa(dp19
g3
(lp20
(dp21
g6
F104
sg7
F168
sS'y'
F325
sS'x'
F899
sg8
g9
sasg8
g11
sg12
S'img_07817.jpg'
p22
sa(dp23
g3
(lp24
(dp25
g6
F386
sg7
F453
sS'y'
F115
sS'x'
F524
sg8
g9
sa(dp26
g6
F276
sg7
F289
sS'y'
F441
sS'x'
F852
sg8
g9
sasg8
g11
sg12
S'img_07774.jpg'
p27
sa(dp28
g3
(lp29
(dp30
g6
F156
sg7
F218
sS'y'
F347
sS'x'
F673
sg8
g9
sa(dp31
g6
F112
sg7
F136
sS'y'
F294
sS'x'
F913
sg8
g9
sasg8
g11
sg12
S'img_07334.jpg'
p32
sa(dp33
g3
(lp34
(dp35
g6
F387
sg7
F384
sS'y'
F154
sS'x'
F599
sg8
g9
sa(dp36
g6
F234
sg7
F368
sS'y'
F484
sS'x'
F681
sg8
g9
sasg8
g11
sg12
S'img_07269.jpg'
p37
sa(dp38
g3
(lp39
(dp40
g6
F365
sg7
F374
sS'y'
F161
sS'x'
F614
sg8
g9
sa(dp41
g6
F228
sg7
F373
sS'y'
F488
sS'x'
F673
sg8
g9
sasg8
g11
sg12
S'img_07176.jpg'
p42
sa(dp43
g3
(lp44
sg8
g11
sg12
S'img_07142.jpg'
p45
sa(dp46
g3
(lp47
(dp48
g6
F306
sg7
F354
sS'y'
F182
sS'x'
F664
sg8
g9
sasg8
g11
sg12
S'img_07087.jpg'
p49
sa(dp50
g3
(lp51
(dp52
g6
F394
sg7
F438
sS'y'
F122
sS'x'
F525
sg8
g9
sa(dp53
g6
F272
sg7
F303
sS'y'
F442
sS'x'
F846
sg8
g9
sasg8
g11
sg12
S'img_07010.jpg'
p54
sa(dp55
g3
(lp56
(dp57
g6
F151
sg7
F186
sS'y'
F352
sS'x'
F684
sg8
g9
sa(dp58
g6
F108
sg7
F124
sS'y'
F294
sS'x'
F925
sg8
g9
sasg8
g11
sg12
S'img_06876.jpg'
p59
sa(dp60
g3
(lp61
(dp62
g6
F295
sg7
F351
sS'y'
F194
sS'x'
F658
sg8
g9
sasg8
g11
sg12
S'img_06713.jpg'
p63
sa(dp64
g3
(lp65
(dp66
g6
F398
sg7
F432
sS'y'
F123
sS'x'
F525
sg8
g9
sa(dp67
g6
F274
sg7
F296
sS'y'
F442
sS'x'
F838
sg8
g9
sasg8
g11
sg12
S'img_06536.jpg'
p68
sa(dp69
g3
(lp70
(dp71
g6
F132
sg7
F140
sS'y'
F322
sS'x'
F831
sg8
g9
sasg8
g11
sg12
S'img_06257.jpg'
p72
sa(dp73
g3
(lp74
sg8
g11
sg12
S'img_06224.jpg'
p75
sa(dp76
g3
(lp77
sg8
g11
sg12
S'img_06223.jpg'
p78
sa(dp79
g3
(lp80
(dp81
g6
F113
sg7
F191
sS'y'
F319
sS'x'
F689
sg8
g9
sasg8
g11
sg12
S'img_06129.jpg'
p82
sa(dp83
g3
(lp84
(dp85
g6
F393
sg7
F431
sS'y'
F114
sS'x'
F519
sg8
g9
sa(dp86
g6
F274
sg7
F294
sS'y'
F442
sS'x'
F851
sg8
g9
sasg8
g11
sg12
S'img_05966.jpg'
p87
sa(dp88
g3
(lp89
(dp90
g6
F148
sg7
F245
sS'y'
F311
sS'x'
F528
sg8
g9
sasg8
g11
sg12
S'img_05945.jpg'
p91
sa(dp92
g3
(lp93
(dp94
g6
F158
sg7
F142
sS'y'
F294
sS'x'
F830
sg8
g9
sasg8
g11
sg12
S'img_05939.jpg'
p95
sa(dp96
g3
(lp97
(dp98
g6
F144
sg7
F167
sS'y'
F354
sS'x'
F688
sg8
g9
sa(dp99
g6
F127
sg7
F134
sS'y'
F288
sS'x'
F921
sg8
g9
sasg8
g11
sg12
S'img_05449.jpg'
p100
sa(dp101
g3
(lp102
(dp103
g6
F392
sg7
F378
sS'y'
F61
sS'x'
F708
sg8
g9
sasg8
g11
sg12
S'img_05386.jpg'
p104
sa(dp105
g3
(lp106
(dp107
g6
F153
sg7
F186
sS'y'
F299
sS'x'
F827
sg8
g9
sasg8
g11
sg12
S'img_05123.jpg'
p108
sa(dp109
g3
(lp110
sg8
g11
sg12
S'img_05081.jpg'
p111
sa(dp112
g3
(lp113
(dp114
g6
F306
sg7
F361
sS'y'
F195
sS'x'
F657
sg8
g9
sasg8
g11
sg12
S'img_05005.jpg'
p115
sa(dp116
g3
(lp117
(dp118
g6
F160
sg7
F193
sS'y'
F352
sS'x'
F684
sg8
g9
sa(dp119
g6
F119
sg7
F143
sS'y'
F291
sS'x'
F911
sg8
g9
sasg8
g11
sg12
S'img_04958.jpg'
p120
sa(dp121
g3
(lp122
(dp123
g6
F404
sg7
F384
sS'y'
F53
sS'x'
F697
sg8
g9
sasg8
g11
sg12
S'img_04953.jpg'
p124
sa(dp125
g3
(lp126
(dp127
g6
F395
sg7
F456
sS'y'
F115
sS'x'
F515
sg8
g9
sa(dp128
g6
F280
sg7
F334
sS'y'
F434
sS'x'
F826
sg8
g9
sasg8
g11
sg12
S'img_04741.jpg'
p129
sa(dp130
g3
(lp131
(dp132
g6
F405
sg7
F384
sS'y'
F56
sS'x'
F701
sg8
g9
sasg8
g11
sg12
S'img_04734.jpg'
p133
sa(dp134
g3
(lp135
(dp136
g6
F105
sg7
F167
sS'y'
F320
sS'x'
F718
sg8
g9
sasg8
g11
sg12
S'img_04711.jpg'
p137
sa(dp138
g3
(lp139
(dp140
g6
F401
sg7
F425
sS'y'
F116
sS'x'
F519
sg8
g9
sa(dp141
g6
F271
sg7
F324
sS'y'
F440
sS'x'
F833
sg8
g9
sasg8
g11
sg12
S'img_04678.jpg'
p142
sa(dp143
g3
(lp144
(dp145
g6
F117
sg7
F206
sS'y'
F315
sS'x'
F679
sg8
g9
sasg8
g11
sg12
S'img_04481.jpg'
p146
sa(dp147
g3
(lp148
(dp149
g6
F104
sg7
F179
sS'y'
F292
sS'x'
F737
sg8
g9
sa(dp150
g6
F148
sg7
F141
sS'y'
F301
sS'x'
F906
sg8
g9
sasg8
g11
sg12
S'img_04435.jpg'
p151
sa(dp152
g3
(lp153
(dp154
g6
F398
sg7
F422
sS'y'
F106
sS'x'
F523
sg8
g9
sa(dp155
g6
F291
sg7
F294
sS'y'
F424
sS'x'
F850
sg8
g9
sasg8
g11
sg12
S'img_04414.jpg'
p156
sa(dp157
g3
(lp158
(dp159
g6
F168
sg7
F192
sS'y'
F342
sS'x'
F674
sg8
g9
sa(dp160
g6
F122
sg7
F177
sS'y'
F285
sS'x'
F878
sg8
g9
sasg8
g11
sg12
S'img_04352.jpg'
p161
sa(dp162
g3
(lp163
(dp164
g6
F402
sg7
F442
sS'y'
F113
sS'x'
F507
sg8
g9
sa(dp165
g6
F277
sg7
F317
sS'y'
F440
sS'x'
F838
sg8
g9
sasg8
g11
sg12
S'img_04297.jpg'
p166
sa(dp167
g3
(lp168
(dp169
g6
F386
sg7
F378
sS'y'
F147
sS'x'
F597
sg8
g9
sa(dp170
g6
F228
sg7
F378
sS'y'
F487
sS'x'
F669
sg8
g9
sasg8
g11
sg12
S'img_04279.jpg'
p171
sa(dp172
g3
(lp173
(dp174
g6
F172
sg7
F225
sS'y'
F290
sS'x'
F514
sg8
g9
sasg8
g11
sg12
S'img_04199.jpg'
p175
sa(dp176
g3
(lp177
(dp178
g6
F147
sg7
F181
sS'y'
F340
sS'x'
F677
sg8
g9
sa(dp179
g6
F135
sg7
F124
sS'y'
F282
sS'x'
F925
sg8
g9
sasg8
g11
sg12
S'img_03940.jpg'
p180
sa(dp181
g3
(lp182
(dp183
g6
F118
sg7
F148
sS'y'
F318
sS'x'
F734
sg8
g9
sasg8
g11
sg12
S'img_03774.jpg'
p184
sa(dp185
g3
(lp186
(dp187
g6
F323
sg7
F361
sS'y'
F171
sS'x'
F659
sg8
g9
sasg8
g11
sg12
S'img_03771.jpg'
p188
sa(dp189
g3
(lp190
(dp191
g6
F387
sg7
F428
sS'y'
F112
sS'x'
F527
sg8
g9
sa(dp192
g6
F286
sg7
F285
sS'y'
F431
sS'x'
F859
sg8
g9
sasg8
g11
sg12
S'img_03611.jpg'
p193
sa(dp194
g3
(lp195
sg8
g11
sg12
S'img_03232.jpg'
p196
sa(dp197
g3
(lp198
sg8
g11
sg12
S'img_03052.jpg'
p199
sa(dp200
g3
(lp201
sg8
g11
sg12
S'img_02758.jpg'
p202
sa(dp203
g3
(lp204
sg8
g11
sg12
S'img_02728.jpg'
p205
sa(dp206
g3
(lp207
(dp208
g6
F402
sg7
F421
sS'y'
F30
sS'x'
F485
sg8
g9
sasg8
g11
sg12
S'img_02694.jpg'
p209
sa(dp210
g3
(lp211
(dp212
g6
F354
sg7
F356
sS'y'
F139
sS'x'
F657
sg8
g9
sasg8
g11
sg12
S'img_02608.jpg'
p213
sa(dp214
g3
(lp215
(dp216
g6
F160
sg7
F190
sS'y'
F356
sS'x'
F456
sg8
g9
sasg8
g11
sg12
S'img_02533.jpg'
p217
sa(dp218
g3
(lp219
sg8
g11
sg12
S'img_02415.jpg'
p220
sa(dp221
g3
(lp222
sg8
g11
sg12
S'img_02349.jpg'
p223
sa(dp224
g3
(lp225
(dp226
g6
F122
sg7
F199
sS'y'
F310
sS'x'
F682
sg8
g9
sasg8
g11
sg12
S'img_02236.jpg'
p227
sa(dp228
g3
(lp229
(dp230
g6
F175
sg7
F159
sS'y'
F288
sS'x'
F825
sg8
g9
sasg8
g11
sg12
S'img_02186.jpg'
p231
sa(dp232
g3
(lp233
(dp234
g6
F175
sg7
F182
sS'y'
F350
sS'x'
F428
sg8
g9
sasg8
g11
sg12
S'img_02089.jpg'
p235
sa(dp236
g3
(lp237
(dp238
g6
F401
sg7
F378
sS'y'
F56
sS'x'
F699
sg8
g9
sasg8
g11
sg12
S'img_02042.jpg'
p239
sa(dp240
g3
(lp241
(dp242
g6
F169
sg7
F192
sS'y'
F349
sS'x'
F684
sg8
g9
sa(dp243
g6
F119
sg7
F143
sS'y'
F292
sS'x'
F912
sg8
g9
sasg8
g11
sg12
S'img_01952.jpg'
p244
sa(dp245
g3
(lp246
(dp247
g6
F392
sg7
F431
sS'y'
F114
sS'x'
F525
sg8
g9
sa(dp248
g6
F288
sg7
F303
sS'y'
F428
sS'x'
F835
sg8
g9
sasg8
g11
sg12
S'img_01766.jpg'
p249
sa(dp250
g3
(lp251
(dp252
g6
F164
sg7
F209
sS'y'
F345
sS'x'
F675
sg8
g9
sa(dp253
g6
F125
sg7
F138
sS'y'
F286
sS'x'
F908
sg8
g9
sasg8
g11
sg12
S'img_01644.jpg'
p254
sa(dp255
g3
(lp256
(dp257
g6
F124
sg7
F206
sS'y'
F311
sS'x'
F675
sg8
g9
sasg8
g11
sg12
S'img_01527.jpg'
p258
sa(dp259
g3
(lp260
(dp261
g6
F364
sg7
F361
sS'y'
F160
sS'x'
F607
sg8
g9
sa(dp262
g6
F215
sg7
F366
sS'y'
F501
sS'x'
F681
sg8
g9
sasg8
g11
sg12
S'img_01512.jpg'
p263
sa(dp264
g3
(lp265
(dp266
g6
F395
sg7
F378
sS'y'
F68
sS'x'
F701
sg8
g9
sasg8
g11
sg12
S'img_01457.jpg'
p267
sa(dp268
g3
(lp269
(dp270
g6
F403
sg7
F426
sS'y'
F113
sS'x'
F521
sg8
g9
sa(dp271
g6
F267
sg7
F310
sS'y'
F447
sS'x'
F832
sg8
g9
sasg8
g11
sg12
S'img_01221.jpg'
p272
sa(dp273
g3
(lp274
(dp275
g6
F146
sg7
F213
sS'y'
F294
sS'x'
F674
sg8
g9
sasg8
g11
sg12
S'img_01037.jpg'
p276
sa(dp277
g3
(lp278
sg8
g11
sg12
S'img_00784.jpg'
p279
sa(dp280
g3
(lp281
sg8
g11
sg12
S'img_00657.jpg'
p282
sa(dp283
g3
(lp284
(dp285
g6
F131
sg7
F212
sS'y'
F308
sS'x'
F673
sg8
g9
sasg8
g11
sg12
S'img_00176.jpg'
p286
sa(dp287
g3
(lp288
(dp289
g6
F395
sg7
F439
sS'y'
F115
sS'x'
F511
sg8
g9
sa(dp290
g6
F296
sg7
F326
sS'y'
F421
sS'x'
F821
sg8
g9
sasg8
g11
sg12
S'img_00091.jpg'
p291
sa.